Component: ARM Compiler 5.06 update 5 (build 528) Tool: armlink [4d35e2]

==============================================================================

Section Cross References

    main.o(i.main) refers to at32_board.o(i.UART_Print_Init) for UART_Print_Init
    main.o(i.main) refers to bsp.o(i.BSP_Init) for BSP_Init
    main.o(i.main) refers to printf8.o(i.__0printf$8) for __2printf
    main.o(i.main) refers to hwtest.o(i.get_ble_version) for get_ble_version
    main.o(i.main) refers to hwtest.o(i.SetBleIntRunningMode) for SetBleIntRunningMode
    main.o(i.main) refers to macrogiga_driver.o(i.radio_initBle) for radio_initBle
    main.o(i.main) refers to hwtest.o(i.ble_set_adv_data) for ble_set_adv_data
    main.o(i.main) refers to hwtest.o(i.ble_run_interrupt_start) for ble_run_interrupt_start
    main.o(i.main) refers to bsp.o(i.IrqMcuGotoSleepAndWakeup) for IrqMcuGotoSleepAndWakeup
    main.o(i.main) refers to main.o(.data) for advData
    app.o(i.ConnectStausUpdate) refers to printf8.o(i.__0printf$8) for __2printf
    app.o(i.ConnectStausUpdate) refers to app.o(.data) for gConnectedFlag
    app.o(i.GetConnectedStatus) refers to app.o(.data) for gConnectedFlag
    app.o(i.att_server_rdByGrType) refers to att.o(i.att_server_rdByGrTypeRspPrimaryService) for att_server_rdByGrTypeRspPrimaryService
    app.o(i.att_server_rdByGrType) refers to att.o(i.att_notFd) for att_notFd
    app.o(i.att_server_rdByGrType) refers to app.o(.constdata) for AttUuid128List
    app.o(i.getDeviceInfoData) refers to app.o(.data) for DeviceInfo
    app.o(i.ser_write_rsp) refers to att.o(i.ser_write_rsp_pkt) for ser_write_rsp_pkt
    app.o(i.ser_write_rsp) refers to att.o(i.att_notFd) for att_notFd
    app.o(i.server_rd_rsp) refers to att.o(i.att_server_rd) for att_server_rd
    app.o(i.server_rd_rsp) refers to att.o(i.att_notFd) for att_notFd
    bsp.o(i.BSP_Init) refers to at32_board.o(i.AT32_Board_Init) for AT32_Board_Init
    bsp.o(i.BSP_Init) refers to bsp.o(i.SPI_Config) for SPI_Config
    bsp.o(i.BSP_Init) refers to bsp.o(i.Uart_Init) for Uart_Init
    bsp.o(i.BSP_Init) refers to at32f4xx_rcc.o(i.RCC_APB2PeriphClockCmd) for RCC_APB2PeriphClockCmd
    bsp.o(i.BSP_Init) refers to at32f4xx_gpio.o(i.GPIO_Init) for GPIO_Init
    bsp.o(i.BSP_Init) refers to at32f4xx_gpio.o(i.GPIO_EXTILineConfig) for GPIO_EXTILineConfig
    bsp.o(i.BSP_Init) refers to at32f4xx_exti.o(i.EXTI_Init) for EXTI_Init
    bsp.o(i.BSP_Init) refers to misc.o(i.NVIC_Init) for NVIC_Init
    bsp.o(i.BSP_Init) refers to at32f4xx_iwdg.o(i.IWDG_KeyRegWrite) for IWDG_KeyRegWrite
    bsp.o(i.BSP_Init) refers to at32f4xx_iwdg.o(i.IWDG_SetPrescaler) for IWDG_SetPrescaler
    bsp.o(i.BSP_Init) refers to at32f4xx_iwdg.o(i.IWDG_SetReload) for IWDG_SetReload
    bsp.o(i.BSP_Init) refers to at32f4xx_iwdg.o(i.IWDG_ReloadCounter) for IWDG_ReloadCounter
    bsp.o(i.BSP_Init) refers to system_at32f4xx.o(.data) for SystemCoreClock
    bsp.o(i.BSP_Init) refers to bsp.o(.data) for GPIO_InitStructure
    bsp.o(i.IsIrqEnabled) refers to at32f4xx_gpio.o(i.GPIO_ReadInputDataBit) for GPIO_ReadInputDataBit
    bsp.o(i.LED_ONOFF) refers to at32_board.o(i.AT32_LEDn_ON) for AT32_LEDn_ON
    bsp.o(i.LED_ONOFF) refers to at32_board.o(i.AT32_LEDn_OFF) for AT32_LEDn_OFF
    bsp.o(i.SPI_CS_Disable_) refers to at32f4xx_gpio.o(i.GPIO_SetBits) for GPIO_SetBits
    bsp.o(i.SPI_CS_Enable_) refers to at32f4xx_gpio.o(i.GPIO_ResetBits) for GPIO_ResetBits
    bsp.o(i.SPI_Config) refers to at32f4xx_rcc.o(i.RCC_APB1PeriphClockCmd) for RCC_APB1PeriphClockCmd
    bsp.o(i.SPI_Config) refers to at32f4xx_rcc.o(i.RCC_APB2PeriphClockCmd) for RCC_APB2PeriphClockCmd
    bsp.o(i.SPI_Config) refers to at32f4xx_gpio.o(i.GPIO_Init) for GPIO_Init
    bsp.o(i.SPI_Config) refers to at32f4xx_gpio.o(i.GPIO_StructInit) for GPIO_StructInit
    bsp.o(i.SPI_Config) refers to at32f4xx_gpio.o(i.GPIO_SetBits) for GPIO_SetBits
    bsp.o(i.SPI_Config) refers to at32f4xx_spi.o(i.SPI_DefaultInitParaConfig) for SPI_DefaultInitParaConfig
    bsp.o(i.SPI_Config) refers to at32f4xx_spi.o(i.SPI_Init) for SPI_Init
    bsp.o(i.SPI_Config) refers to at32f4xx_spi.o(i.SPI_Enable) for SPI_Enable
    bsp.o(i.SPI_Config) refers to bsp.o(.data) for GPIO_InitStructure
    bsp.o(i.SPI_Config) refers to bsp.o(.bss) for SPI_InitStructure
    bsp.o(i.SPI_ReadBuf) refers to bsp.o(i.SPI_CS_Enable_) for SPI_CS_Enable_
    bsp.o(i.SPI_ReadBuf) refers to bsp.o(i.SPI_WriteRead) for SPI_WriteRead
    bsp.o(i.SPI_ReadBuf) refers to bsp.o(i.SPI_CS_Disable_) for SPI_CS_Disable_
    bsp.o(i.SPI_WriteBuf) refers to bsp.o(i.SPI_CS_Enable_) for SPI_CS_Enable_
    bsp.o(i.SPI_WriteBuf) refers to bsp.o(i.SPI_WriteRead) for SPI_WriteRead
    bsp.o(i.SPI_WriteBuf) refers to bsp.o(i.SPI_CS_Disable_) for SPI_CS_Disable_
    bsp.o(i.SPI_WriteRead) refers to at32f4xx_spi.o(i.SPI_I2S_GetFlagStatus) for SPI_I2S_GetFlagStatus
    bsp.o(i.SPI_WriteRead) refers to at32f4xx_spi.o(i.SPI_I2S_TxData) for SPI_I2S_TxData
    bsp.o(i.SPI_WriteRead) refers to at32f4xx_spi.o(i.SPI_I2S_RxData) for SPI_I2S_RxData
    bsp.o(i.Uart_Init) refers to at32f4xx_rcc.o(i.RCC_APB2PeriphClockCmd) for RCC_APB2PeriphClockCmd
    bsp.o(i.Uart_Init) refers to at32f4xx_rcc.o(i.RCC_APB1PeriphClockCmd) for RCC_APB1PeriphClockCmd
    bsp.o(i.Uart_Init) refers to at32f4xx_gpio.o(i.GPIO_PinsRemapConfig) for GPIO_PinsRemapConfig
    bsp.o(i.Uart_Init) refers to at32f4xx_gpio.o(i.GPIO_Init) for GPIO_Init
    bsp.o(i.Uart_Init) refers to at32f4xx_usart.o(i.USART_Init) for USART_Init
    bsp.o(i.Uart_Init) refers to at32f4xx_usart.o(i.USART_INTConfig) for USART_INTConfig
    bsp.o(i.Uart_Init) refers to at32f4xx_usart.o(i.USART_Cmd) for USART_Cmd
    bsp.o(i.Uart_Init) refers to misc.o(i.NVIC_Init) for NVIC_Init
    bsp.o(i.Uart_Init) refers to bsp.o(.data) for GPIO_InitStructure
    bsp.o(i.Uart_Init) refers to bsp.o(.bss) for USART_InitStructure
    at32f4xx_it.o(i.EXTI15_10_IRQHandler) refers to at32f4xx_exti.o(i.EXTI_GetIntStatus) for EXTI_GetIntStatus
    at32f4xx_it.o(i.EXTI15_10_IRQHandler) refers to at32f4xx_exti.o(i.EXTI_ClearIntPendingBit) for EXTI_ClearIntPendingBit
    at32f4xx_it.o(i.EXTI15_10_IRQHandler) refers to hwtest.o(i.ble_run) for ble_run
    at32f4xx_it.o(i.GetSysTickCount) refers to at32f4xx_it.o(.data) for SysTick_Count
    at32f4xx_it.o(i.SysTick_Handler) refers to hwtest.o(i.ble_nMsRoutine) for ble_nMsRoutine
    at32f4xx_it.o(i.SysTick_Handler) refers to at32f4xx_it.o(.data) for SysTick_Count
    retarget.o(i.CheckComPortInData) refers to app.o(i.GetConnectedStatus) for GetConnectedStatus
    retarget.o(i.CheckComPortInData) refers to att.o(i.sconn_notifydata) for sconn_notifydata
    retarget.o(i.CheckComPortInData) refers to retarget.o(.data) for RxCont
    retarget.o(i.CheckComPortInData) refers to retarget.o(.bss) for rxBuf
    retarget.o(i.USART2_IRQHandler) refers to at32f4xx_usart.o(i.USART_GetITStatus) for USART_GetITStatus
    retarget.o(i.USART2_IRQHandler) refers to at32f4xx_usart.o(i.USART_ReceiveData) for USART_ReceiveData
    retarget.o(i.USART2_IRQHandler) refers to at32f4xx_usart.o(i.USART_SendData) for USART_SendData
    retarget.o(i.USART2_IRQHandler) refers to at32f4xx_usart.o(i.USART_INTConfig) for USART_INTConfig
    retarget.o(i.USART2_IRQHandler) refers to retarget.o(.bss) for rxBuf
    retarget.o(i.USART2_IRQHandler) refers to retarget.o(.data) for RxCont
    retarget.o(i.UsrProcCallback) refers to at32f4xx_iwdg.o(i.IWDG_ReloadCounter) for IWDG_ReloadCounter
    retarget.o(i.UsrProcCallback) refers to bsp.o(i.LED_ONOFF) for LED_ONOFF
    retarget.o(i.UsrProcCallback) refers to retarget.o(i.CheckComPortInData) for CheckComPortInData
    retarget.o(i.UsrProcCallback) refers to at32f4xx_usart.o(i.USART_SendData) for USART_SendData
    retarget.o(i.UsrProcCallback) refers to at32f4xx_usart.o(i.USART_INTConfig) for USART_INTConfig
    retarget.o(i.UsrProcCallback) refers to retarget.o(.data) for led_flash
    retarget.o(i.UsrProcCallback) refers to retarget.o(.bss) for txBuf
    retarget.o(i.moduleOutData) refers to retarget.o(.data) for txLen
    retarget.o(i.moduleOutData) refers to retarget.o(.bss) for txBuf
    at32_board.o(i.AT32_BUTTON_Init) refers to at32f4xx_rcc.o(i.RCC_APB2PeriphClockCmd) for RCC_APB2PeriphClockCmd
    at32_board.o(i.AT32_BUTTON_Init) refers to at32f4xx_gpio.o(i.GPIO_StructInit) for GPIO_StructInit
    at32_board.o(i.AT32_BUTTON_Init) refers to at32f4xx_gpio.o(i.GPIO_Init) for GPIO_Init
    at32_board.o(i.AT32_BUTTON_Init) refers to at32_board.o(.data) for BUTTON_GPIO_RCC_CLK
    at32_board.o(i.AT32_BUTTON_Press) refers to at32_board.o(i.AT32_BUTTON_State) for AT32_BUTTON_State
    at32_board.o(i.AT32_BUTTON_Press) refers to at32_board.o(i.Delay_ms) for Delay_ms
    at32_board.o(i.AT32_BUTTON_Press) refers to at32_board.o(.data) for Pressed
    at32_board.o(i.AT32_BUTTON_State) refers to at32f4xx_gpio.o(i.GPIO_ReadInputDataBit) for GPIO_ReadInputDataBit
    at32_board.o(i.AT32_BUTTON_State) refers to at32_board.o(.data) for BUTTON_GPIO_PIN
    at32_board.o(i.AT32_Board_Init) refers to at32_board.o(i.Delay_init) for Delay_init
    at32_board.o(i.AT32_Board_Init) refers to at32_board.o(i.AT32_LEDn_Init) for AT32_LEDn_Init
    at32_board.o(i.AT32_Board_Init) refers to at32_board.o(i.AT32_LEDn_OFF) for AT32_LEDn_OFF
    at32_board.o(i.AT32_Board_Init) refers to at32_board.o(i.AT32_BUTTON_Init) for AT32_BUTTON_Init
    at32_board.o(i.AT32_LEDn_Init) refers to at32f4xx_rcc.o(i.RCC_APB2PeriphClockCmd) for RCC_APB2PeriphClockCmd
    at32_board.o(i.AT32_LEDn_Init) refers to at32f4xx_gpio.o(i.GPIO_StructInit) for GPIO_StructInit
    at32_board.o(i.AT32_LEDn_Init) refers to at32f4xx_gpio.o(i.GPIO_Init) for GPIO_Init
    at32_board.o(i.AT32_LEDn_Init) refers to at32_board.o(.data) for LED_GPIO_RCC_CLK
    at32_board.o(i.AT32_LEDn_OFF) refers to at32_board.o(.data) for LED_GPIO_PIN
    at32_board.o(i.AT32_LEDn_ON) refers to at32_board.o(.data) for LED_GPIO_PIN
    at32_board.o(i.AT32_LEDn_Toggle) refers to at32_board.o(.data) for LED_GPIO_PIN
    at32_board.o(i.AT32_USB_GPIO_init) refers to at32f4xx_rcc.o(i.RCC_APB2PeriphClockCmd) for RCC_APB2PeriphClockCmd
    at32_board.o(i.AT32_USB_GPIO_init) refers to at32f4xx_gpio.o(i.GPIO_StructInit) for GPIO_StructInit
    at32_board.o(i.AT32_USB_GPIO_init) refers to at32f4xx_gpio.o(i.GPIO_Init) for GPIO_Init
    at32_board.o(i.AT32_USB_GPIO_init) refers to at32f4xx_gpio.o(i.GPIO_ResetBits) for GPIO_ResetBits
    at32_board.o(i.Delay_init) refers to misc.o(i.SysTick_CLKSourceConfig) for SysTick_CLKSourceConfig
    at32_board.o(i.Delay_init) refers to system_at32f4xx.o(.data) for SystemCoreClock
    at32_board.o(i.Delay_init) refers to at32_board.o(.data) for fac_us
    at32_board.o(i.Delay_ms) refers to at32_board.o(.data) for fac_ms
    at32_board.o(i.Delay_sec) refers to at32_board.o(i.Delay_ms) for Delay_ms
    at32_board.o(i.Delay_us) refers to at32_board.o(.data) for fac_us
    at32_board.o(i.UART_Print_Init) refers to at32f4xx_rcc.o(i.RCC_APB2PeriphClockCmd) for RCC_APB2PeriphClockCmd
    at32_board.o(i.UART_Print_Init) refers to at32f4xx_gpio.o(i.GPIO_StructInit) for GPIO_StructInit
    at32_board.o(i.UART_Print_Init) refers to at32f4xx_gpio.o(i.GPIO_Init) for GPIO_Init
    at32_board.o(i.UART_Print_Init) refers to at32f4xx_usart.o(i.USART_StructInit) for USART_StructInit
    at32_board.o(i.UART_Print_Init) refers to at32f4xx_usart.o(i.USART_Init) for USART_Init
    at32_board.o(i.UART_Print_Init) refers to at32f4xx_usart.o(i.USART_INTConfig) for USART_INTConfig
    at32_board.o(i.UART_Print_Init) refers to at32f4xx_usart.o(i.USART_Cmd) for USART_Cmd
    at32_board.o(i.fputc) refers to at32f4xx_usart.o(i.USART_SendData) for USART_SendData
    at32_board.o(i.fputc) refers to at32f4xx_usart.o(i.USART_GetFlagStatus) for USART_GetFlagStatus
    system_at32f4xx.o(i.SetSysClock) refers to system_at32f4xx.o(i.SetSysClockTo48MHSI) for SetSysClockTo48MHSI
    system_at32f4xx.o(i.SystemCoreClockUpdate) refers to system_at32f4xx.o(.data) for SystemCoreClock
    system_at32f4xx.o(i.SystemInit) refers to system_at32f4xx.o(i.SetSysClock) for SetSysClock
    startup_at32f407vgt7.o(RESET) refers to startup_at32f407vgt7.o(STACK) for __initial_sp
    startup_at32f407vgt7.o(RESET) refers to startup_at32f407vgt7.o(.text) for Reset_Handler
    startup_at32f407vgt7.o(RESET) refers to at32f4xx_it.o(i.NMI_Handler) for NMI_Handler
    startup_at32f407vgt7.o(RESET) refers to at32f4xx_it.o(i.HardFault_Handler) for HardFault_Handler
    startup_at32f407vgt7.o(RESET) refers to at32f4xx_it.o(i.MemManage_Handler) for MemManage_Handler
    startup_at32f407vgt7.o(RESET) refers to at32f4xx_it.o(i.BusFault_Handler) for BusFault_Handler
    startup_at32f407vgt7.o(RESET) refers to at32f4xx_it.o(i.UsageFault_Handler) for UsageFault_Handler
    startup_at32f407vgt7.o(RESET) refers to at32f4xx_it.o(i.SVC_Handler) for SVC_Handler
    startup_at32f407vgt7.o(RESET) refers to at32f4xx_it.o(i.DebugMon_Handler) for DebugMon_Handler
    startup_at32f407vgt7.o(RESET) refers to at32f4xx_it.o(i.PendSV_Handler) for PendSV_Handler
    startup_at32f407vgt7.o(RESET) refers to at32f4xx_it.o(i.SysTick_Handler) for SysTick_Handler
    startup_at32f407vgt7.o(RESET) refers to retarget.o(i.USART2_IRQHandler) for USART2_IRQHandler
    startup_at32f407vgt7.o(RESET) refers to at32f4xx_it.o(i.EXTI15_10_IRQHandler) for EXTI15_10_IRQHandler
    startup_at32f407vgt7.o(.text) refers to system_at32f4xx.o(i.SystemInit) for SystemInit
    startup_at32f407vgt7.o(.text) refers to entry.o(.ARM.Collect$$$$00000000) for __main
    at32f4xx_gpio.o(i.GPIO_AFIOReset) refers to at32f4xx_rcc.o(i.RCC_APB2PeriphResetCmd) for RCC_APB2PeriphResetCmd
    at32f4xx_gpio.o(i.GPIO_Reset) refers to at32f4xx_rcc.o(i.RCC_APB2PeriphResetCmd) for RCC_APB2PeriphResetCmd
    at32f4xx_rcc.o(i.RCC_GetClocksFreq) refers to at32f4xx_rcc.o(.constdata) for APBAHBPscTable
    at32f4xx_rcc.o(i.RCC_WaitForHSEStable) refers to at32f4xx_rcc.o(i.RCC_GetFlagStatus) for RCC_GetFlagStatus
    at32f4xx_rcc.o(i.RCC_WaitForHSEStable) refers to at32f4xx_rcc.o(i.RCC_HSEENDelay) for RCC_HSEENDelay
    at32f4xx_spi.o(i.I2S_Init) refers to at32f4xx_rcc.o(i.RCC_GetClocksFreq) for RCC_GetClocksFreq
    at32f4xx_spi.o(i.SPI_I2S_Reset) refers to at32f4xx_rcc.o(i.RCC_APB2PeriphResetCmd) for RCC_APB2PeriphResetCmd
    at32f4xx_spi.o(i.SPI_I2S_Reset) refers to at32f4xx_rcc.o(i.RCC_APB1PeriphResetCmd) for RCC_APB1PeriphResetCmd
    at32f4xx_usart.o(i.USART_Init) refers to at32f4xx_rcc.o(i.RCC_GetClocksFreq) for RCC_GetClocksFreq
    at32f4xx_usart.o(i.USART_Reset) refers to at32f4xx_rcc.o(i.RCC_APB2PeriphResetCmd) for RCC_APB2PeriphResetCmd
    at32f4xx_usart.o(i.USART_Reset) refers to at32f4xx_rcc.o(i.RCC_APB1PeriphResetCmd) for RCC_APB1PeriphResetCmd
    att.o(i.GetFirmwareInfo) refers to macrogiga_driver.o(.data) for ChipVer
    att.o(i.GetFirmwareInfo) refers to att.o(.data) for .data
    att.o(i.att_ErrorFd_eCode) refers to att.o(i.att_rsp) for att_rsp
    att.o(i.att_exMtuReq) refers to att.o(i.att_rsp) for att_rsp
    att.o(i.att_notFd) refers to att.o(i.att_ErrorFd_eCode) for att_ErrorFd_eCode
    att.o(i.att_rsp) refers to slave_dispatch.o(i.GenerateTxQueue) for GenerateTxQueue
    att.o(i.att_server_findByType) refers to app.o(i.GetPrimaryServiceHandle) for GetPrimaryServiceHandle
    att.o(i.att_server_findByType) refers to att.o(i.att_rsp) for att_rsp
    att.o(i.att_server_findByType) refers to att.o(i.att_notFd) for att_notFd
    att.o(i.att_server_findIn) refers to att.o(i.att_rsp) for att_rsp
    att.o(i.att_server_findIn) refers to app.o(i.GetCharListDim) for GetCharListDim
    att.o(i.att_server_findIn) refers to att.o(i.att_notFd) for att_notFd
    att.o(i.att_server_findIn) refers to app.o(.constdata) for AttCharList
    att.o(i.att_server_rd) refers to memseta.o(.text) for __aeabi_memclr4
    att.o(i.att_server_rd) refers to att.o(i.att_rsp) for att_rsp
    att.o(i.att_server_rdByGrTypeRspDeviceInfo) refers to att.o(i.att_rsp) for att_rsp
    att.o(i.att_server_rdByGrTypeRspDeviceInfo) refers to att.o(.data) for .data
    att.o(i.att_server_rdByGrTypeRspPrimaryService) refers to att.o(i.att_rsp) for att_rsp
    att.o(i.att_server_rdByType) refers to app.o(i.getDeviceInfoData) for getDeviceInfoData
    att.o(i.att_server_rdByType) refers to memcpya.o(.text) for __aeabi_memcpy
    att.o(i.att_server_rdByType) refers to att.o(i.att_rsp) for att_rsp
    att.o(i.att_server_rdByType) refers to app.o(i.GetCharListDim) for GetCharListDim
    att.o(i.att_server_rdByType) refers to att.o(i.att_notFd) for att_notFd
    att.o(i.att_server_rdByType) refers to att.o(.data) for .data
    att.o(i.att_server_rdByType) refers to app.o(.constdata) for AttCharList
    att.o(i.sconn_indicationdata) refers to data_queue.o(i.get_node_free) for get_node_free
    att.o(i.sconn_indicationdata) refers to att.o(i.ser_notify_handle) for ser_notify_handle
    att.o(i.sconn_indicationdata) refers to app.o(.data) for cur_notifyhandle
    att.o(i.sconn_notifydata) refers to data_queue.o(i.get_node_free) for get_node_free
    att.o(i.sconn_notifydata) refers to att.o(i.ser_notify_handle) for ser_notify_handle
    att.o(i.sconn_notifydata) refers to app.o(.data) for cur_notifyhandle
    att.o(i.ser_execute_write_rsp) refers to att.o(i.att_rsp) for att_rsp
    att.o(i.ser_execute_write_rsp) refers to app.o(i.ser_execute_write) for ser_execute_write
    att.o(i.ser_notify_handle) refers to memseta.o(.text) for __aeabi_memclr4
    att.o(i.ser_notify_handle) refers to att.o(i.att_rsp) for att_rsp
    att.o(i.ser_prepare_write_rsp) refers to att.o(i.att_rsp) for att_rsp
    att.o(i.ser_prepare_write_rsp) refers to app.o(i.ser_prepare_write) for ser_prepare_write
    att.o(i.ser_write_rsp_pkt) refers to att.o(i.att_rsp) for att_rsp
    att.o(i.set_notifyhandle) refers to app.o(.data) for cur_notifyhandle
    hwtest.o(i.CanSleep) refers to at32f4xx_it.o(i.GetSysTickCount) for GetSysTickCount
    hwtest.o(i.CanSleep) refers to hwtest.o(.data) for .data
    hwtest.o(i.CanSleep) refers to macrogiga_driver.o(.data) for radio_do_cal_state
    hwtest.o(i.IsSwTimeOut) refers to at32f4xx_it.o(i.GetSysTickCount) for GetSysTickCount
    hwtest.o(i.IsSwTimeOut) refers to hwtest.o(.data) for .data
    hwtest.o(i.SetBleIntRunningMode) refers to hwtest.o(.data) for .data
    hwtest.o(i.SetMcuCanSleepThreshold) refers to hwtest.o(.data) for .data
    hwtest.o(i.SetMcuSleepFlag) refers to hwtest.o(.data) for .data
    hwtest.o(i.SetSwTimer) refers to at32f4xx_it.o(i.GetSysTickCount) for GetSysTickCount
    hwtest.o(i.SetSwTimer) refers to hwtest.o(.data) for .data
    hwtest.o(i.ble_nMsRoutine) refers to fsm_adv_generic.o(i.CheckMcuTimerForRcCal) for CheckMcuTimerForRcCal
    hwtest.o(i.ble_nMsRoutine) refers to fsm_adv_generic.o(i.bb_advCalTimerIrq) for bb_advCalTimerIrq
    hwtest.o(i.ble_nMsRoutine) refers to macrogiga_driver.o(i.radio_do_cal_step_check) for radio_do_cal_step_check
    hwtest.o(i.ble_nMsRoutine) refers to hwtest.o(.data) for .data
    hwtest.o(i.ble_nMsRoutine) refers to fsm_base.o(.data) for bb_fsm
    hwtest.o(i.ble_run) refers to hwtest.o(i.test_scan) for test_scan
    hwtest.o(i.ble_run) refers to hwtest.o(i.test_adv_generic) for test_adv_generic
    hwtest.o(i.ble_run) refers to bsp.o(i.IsIrqEnabled) for IsIrqEnabled
    hwtest.o(i.ble_run) refers to macrogiga_driver.o(i.radio_readIRQ) for radio_readIRQ
    hwtest.o(i.ble_run) refers to macrogiga_driver.o(i.radio_clearIRQ) for radio_clearIRQ
    hwtest.o(i.ble_run) refers to macrogiga_driver.o(i.radio_getClock) for radio_getClock
    hwtest.o(i.ble_run) refers to macrogiga_driver.o(i.radio_getHdr) for radio_getHdr
    hwtest.o(i.ble_run) refers to macrogiga_driver.o(i.radio_getHClock) for radio_getHClock
    hwtest.o(i.ble_run) refers to macrogiga_driver.o(i.radio_getPdu) for radio_getPdu
    hwtest.o(i.ble_run) refers to fsm_base.o(i.bb_setConnState) for bb_setConnState
    hwtest.o(i.ble_run) refers to macrogiga_driver.o(i.radio_sleep) for radio_sleep
    hwtest.o(i.ble_run) refers to hwtest.o(i.IsSwTimeOut) for IsSwTimeOut
    hwtest.o(i.ble_run) refers to macrogiga_driver.o(i.radio_wakeup) for radio_wakeup
    hwtest.o(i.ble_run) refers to hwtest.o(i.CanSleep) for CanSleep
    hwtest.o(i.ble_run) refers to bsp.o(i.McuGotoSleepAndWakeup) for McuGotoSleepAndWakeup
    hwtest.o(i.ble_run) refers to fsm_adv_generic.o(i.CheckMcuTimerForRcCal) for CheckMcuTimerForRcCal
    hwtest.o(i.ble_run) refers to fsm_adv_generic.o(i.bb_advCalTimerIrq) for bb_advCalTimerIrq
    hwtest.o(i.ble_run) refers to fsm_adv_generic.o(i.GetAdvEnable) for GetAdvEnable
    hwtest.o(i.ble_run) refers to retarget.o(i.UsrProcCallback) for UsrProcCallback
    hwtest.o(i.ble_run) refers to at32f4xx_it.o(i.GetSysTickCount) for GetSysTickCount
    hwtest.o(i.ble_run) refers to fsm_adv_generic.o(i.GetAdvCh) for GetAdvCh
    hwtest.o(i.ble_run) refers to hwtest.o(.data) for .data
    hwtest.o(i.ble_run) refers to fsm_base.o(.data) for wakeup_hfclk
    hwtest.o(i.ble_run) refers to fsm_base.o(.data) for wakeup_lfclk
    hwtest.o(i.ble_run) refers to fsm_base.o(.data) for bb_fsm
    hwtest.o(i.ble_run) refers to hwtest.o(.bss) for .bss
    hwtest.o(i.ble_run_interrupt_McuCanSleep) refers to hwtest.o(i.CanSleep) for CanSleep
    hwtest.o(i.ble_run_interrupt_McuCanSleep) refers to hwtest.o(.data) for .data
    hwtest.o(i.ble_run_interrupt_start) refers to at32f4xx_it.o(i.GetSysTickCount) for GetSysTickCount
    hwtest.o(i.ble_run_interrupt_start) refers to hwtest.o(i.ble_run) for ble_run
    hwtest.o(i.ble_run_interrupt_start) refers to hwtest.o(.data) for .data
    hwtest.o(i.ble_set_adv_data) refers to memcpya.o(.text) for __aeabi_memcpy
    hwtest.o(i.ble_set_adv_data) refers to hwtest.o(i.update_adv_generic_para) for update_adv_generic_para
    hwtest.o(i.ble_set_adv_data) refers to hwtest.o(.bss) for .bss
    hwtest.o(i.ble_set_adv_data) refers to hwtest.o(.data) for .data
    hwtest.o(i.ble_set_adv_rsp_data) refers to memcpya.o(.text) for __aeabi_memcpy
    hwtest.o(i.ble_set_adv_rsp_data) refers to hwtest.o(i.update_adv_generic_para) for update_adv_generic_para
    hwtest.o(i.ble_set_adv_rsp_data) refers to hwtest.o(.bss) for .bss
    hwtest.o(i.ble_set_adv_rsp_data) refers to hwtest.o(.data) for .data
    hwtest.o(i.ble_set_adv_type) refers to hwtest.o(i.update_adv_generic_para) for update_adv_generic_para
    hwtest.o(i.ble_set_adv_type) refers to hwtest.o(.data) for .data
    hwtest.o(i.ble_set_interval) refers to hwtest.o(i.update_adv_generic_para) for update_adv_generic_para
    hwtest.o(i.ble_set_interval) refers to hwtest.o(.data) for .data
    hwtest.o(i.ble_set_name) refers to hwtest.o(.data) for .data
    hwtest.o(i.ble_set_role) refers to hwtest.o(.data) for .data
    hwtest.o(i.ble_set_role) refers to macrogiga_driver.o(.data) for radio_do_cal_state
    hwtest.o(i.test_adv_generic) refers to hwtest.o(i.update_adv_generic_para) for update_adv_generic_para
    hwtest.o(i.test_adv_generic) refers to app.o(i.ConnectStausUpdate) for ConnectStausUpdate
    hwtest.o(i.test_adv_generic) refers to fsm_adv_generic.o(i.bb_advGenericStart) for bb_advGenericStart
    hwtest.o(i.test_adv_generic) refers to hwtest.o(.data) for .data
    hwtest.o(i.test_scan) refers to fsm_scan.o(i.bb_scanSetup) for bb_scanSetup
    hwtest.o(i.test_scan) refers to fsm_scan.o(i.bb_scanStart) for bb_scanStart
    hwtest.o(i.test_scan) refers to hwtest.o(.data) for .data
    hwtest.o(i.update_adv_generic_para) refers to app.o(i.getDeviceInfoData) for getDeviceInfoData
    hwtest.o(i.update_adv_generic_para) refers to fsm_adv_generic.o(i.bb_advGenericSetup) for bb_advGenericSetup
    hwtest.o(i.update_adv_generic_para) refers to hwtest.o(.data) for .data
    hwtest.o(i.update_adv_generic_para) refers to hwtest.o(.bss) for .bss
    hwtest.o(i.update_scan_para) refers to hwtest.o(.data) for .data
    macrogiga_driver.o(i.Write_Buf) refers to macrogiga_driver.o(i.mg_writeBuf) for mg_writeBuf
    macrogiga_driver.o(i.mg_ReadOTP) refers to macrogiga_driver.o(i.mg_activate) for mg_activate
    macrogiga_driver.o(i.mg_ReadOTP) refers to macrogiga_driver.o(i.mg_writeBuf) for mg_writeBuf
    macrogiga_driver.o(i.mg_ReadOTP) refers to macrogiga_driver.o(i.mg_writeReg) for mg_writeReg
    macrogiga_driver.o(i.mg_ReadOTP) refers to macrogiga_driver.o(i.DelayUs) for DelayUs
    macrogiga_driver.o(i.mg_ReadOTP) refers to macrogiga_driver.o(i.mg_readReg) for mg_readReg
    macrogiga_driver.o(i.mg_activate) refers to bsp.o(i.SPI_WriteBuf) for SPI_WriteBuf
    macrogiga_driver.o(i.mg_readBuf) refers to bsp.o(i.SPI_ReadBuf) for SPI_ReadBuf
    macrogiga_driver.o(i.mg_readReg) refers to bsp.o(i.SPI_ReadBuf) for SPI_ReadBuf
    macrogiga_driver.o(i.mg_writeBuf) refers to bsp.o(i.SPI_WriteBuf) for SPI_WriteBuf
    macrogiga_driver.o(i.mg_writeReg) refers to bsp.o(i.SPI_WriteBuf) for SPI_WriteBuf
    macrogiga_driver.o(i.radio_clearIRQ) refers to macrogiga_driver.o(i.mg_writeReg) for mg_writeReg
    macrogiga_driver.o(i.radio_do_cal) refers to macrogiga_driver.o(i.mg_activate) for mg_activate
    macrogiga_driver.o(i.radio_do_cal) refers to macrogiga_driver.o(i.mg_writeReg) for mg_writeReg
    macrogiga_driver.o(i.radio_do_cal) refers to macrogiga_driver.o(i.mg_readReg) for mg_readReg
    macrogiga_driver.o(i.radio_do_cal) refers to macrogiga_driver.o(i.mg_writeBuf) for mg_writeBuf
    macrogiga_driver.o(i.radio_do_cal_check_result) refers to macrogiga_driver.o(i.mg_activate) for mg_activate
    macrogiga_driver.o(i.radio_do_cal_check_result) refers to macrogiga_driver.o(i.mg_readReg) for mg_readReg
    macrogiga_driver.o(i.radio_do_cal_reset) refers to macrogiga_driver.o(.data) for .data
    macrogiga_driver.o(i.radio_do_cal_start) refers to macrogiga_driver.o(i.mg_activate) for mg_activate
    macrogiga_driver.o(i.radio_do_cal_start) refers to macrogiga_driver.o(i.mg_writeReg) for mg_writeReg
    macrogiga_driver.o(i.radio_do_cal_start) refers to macrogiga_driver.o(.data) for .data
    macrogiga_driver.o(i.radio_do_cal_step_check) refers to macrogiga_driver.o(i.radio_do_cal_check_result) for radio_do_cal_check_result
    macrogiga_driver.o(i.radio_do_cal_step_check) refers to macrogiga_driver.o(i.mg_writeReg) for mg_writeReg
    macrogiga_driver.o(i.radio_do_cal_step_check) refers to macrogiga_driver.o(i.mg_writeBuf) for mg_writeBuf
    macrogiga_driver.o(i.radio_do_cal_step_check) refers to macrogiga_driver.o(i.mg_activate) for mg_activate
    macrogiga_driver.o(i.radio_do_cal_step_check) refers to macrogiga_driver.o(.data) for .data
    macrogiga_driver.o(i.radio_fixSPI) refers to macrogiga_driver.o(i.mg_activate) for mg_activate
    macrogiga_driver.o(i.radio_fixSPI) refers to macrogiga_driver.o(i.mg_writeReg) for mg_writeReg
    macrogiga_driver.o(i.radio_getClock) refers to macrogiga_driver.o(i.mg_readBuf) for mg_readBuf
    macrogiga_driver.o(i.radio_getHClock) refers to macrogiga_driver.o(i.mg_readBuf) for mg_readBuf
    macrogiga_driver.o(i.radio_getHdr) refers to macrogiga_driver.o(i.mg_readBuf) for mg_readBuf
    macrogiga_driver.o(i.radio_getHdr) refers to macrogiga_driver.o(.data) for .data
    macrogiga_driver.o(i.radio_getPdu) refers to macrogiga_driver.o(i.mg_readBuf) for mg_readBuf
    macrogiga_driver.o(i.radio_getPdu) refers to macrogiga_driver.o(.data) for .data
    macrogiga_driver.o(i.radio_initBle) refers to macrogiga_driver.o(i.mg_activate) for mg_activate
    macrogiga_driver.o(i.radio_initBle) refers to macrogiga_driver.o(i.mg_readReg) for mg_readReg
    macrogiga_driver.o(i.radio_initBle) refers to macrogiga_driver.o(i.mg_writeReg) for mg_writeReg
    macrogiga_driver.o(i.radio_initBle) refers to macrogiga_driver.o(i.radio_setPaGain) for radio_setPaGain
    macrogiga_driver.o(i.radio_initBle) refers to macrogiga_driver.o(i.mg_writeBuf) for mg_writeBuf
    macrogiga_driver.o(i.radio_initBle) refers to macrogiga_driver.o(i.mg_readBuf) for mg_readBuf
    macrogiga_driver.o(i.radio_initBle) refers to macrogiga_driver.o(i.radio_sleep) for radio_sleep
    macrogiga_driver.o(i.radio_initBle) refers to hwtest.o(.data) for myAddr
    macrogiga_driver.o(i.radio_initBle) refers to macrogiga_driver.o(.data) for .data
    macrogiga_driver.o(i.radio_initBle_TO) refers to at32f4xx_it.o(i.GetSysTickCount) for GetSysTickCount
    macrogiga_driver.o(i.radio_initBle_TO) refers to macrogiga_driver.o(i.mg_activate) for mg_activate
    macrogiga_driver.o(i.radio_initBle_TO) refers to macrogiga_driver.o(i.mg_readReg) for mg_readReg
    macrogiga_driver.o(i.radio_initBle_TO) refers to macrogiga_driver.o(i.mg_writeReg) for mg_writeReg
    macrogiga_driver.o(i.radio_initBle_TO) refers to macrogiga_driver.o(i.radio_setPaGain) for radio_setPaGain
    macrogiga_driver.o(i.radio_initBle_TO) refers to macrogiga_driver.o(i.mg_writeBuf) for mg_writeBuf
    macrogiga_driver.o(i.radio_initBle_TO) refers to macrogiga_driver.o(i.mg_readBuf) for mg_readBuf
    macrogiga_driver.o(i.radio_initBle_TO) refers to macrogiga_driver.o(i.radio_sleep) for radio_sleep
    macrogiga_driver.o(i.radio_initBle_TO) refers to hwtest.o(.data) for myAddr
    macrogiga_driver.o(i.radio_initBle_TO) refers to macrogiga_driver.o(.data) for .data
    macrogiga_driver.o(i.radio_initBle_recover) refers to macrogiga_driver.o(i.mg_activate) for mg_activate
    macrogiga_driver.o(i.radio_initBle_recover) refers to macrogiga_driver.o(i.Write_Buf) for Write_Buf
    macrogiga_driver.o(i.radio_initBle_recover) refers to macrogiga_driver.o(i.mg_ReadOTP) for mg_ReadOTP
    macrogiga_driver.o(i.radio_initBle_recover) refers to macrogiga_driver.o(i.mg_writeReg) for mg_writeReg
    macrogiga_driver.o(i.radio_initBle_recover) refers to macrogiga_driver.o(i.mg_writeBuf) for mg_writeBuf
    macrogiga_driver.o(i.radio_initBle_recover) refers to macrogiga_driver.o(i.DelayUs) for DelayUs
    macrogiga_driver.o(i.radio_initBle_recover) refers to hwtest.o(.data) for myAddr
    macrogiga_driver.o(i.radio_readIRQ) refers to macrogiga_driver.o(i.mg_readReg) for mg_readReg
    macrogiga_driver.o(i.radio_resume) refers to macrogiga_driver.o(i.mg_activate) for mg_activate
    macrogiga_driver.o(i.radio_resume) refers to macrogiga_driver.o(i.mg_writeReg) for mg_writeReg
    macrogiga_driver.o(i.radio_resume) refers to macrogiga_driver.o(i.mg_writeBuf) for mg_writeBuf
    macrogiga_driver.o(i.radio_setAccessCode) refers to macrogiga_driver.o(i.mg_writeBuf) for mg_writeBuf
    macrogiga_driver.o(i.radio_setAdvHeader) refers to macrogiga_driver.o(i.mg_writeBuf) for mg_writeBuf
    macrogiga_driver.o(i.radio_setAdvPayload) refers to macrogiga_driver.o(i.mg_writeBuf) for mg_writeBuf
    macrogiga_driver.o(i.radio_setBleAddr) refers to macrogiga_driver.o(i.mg_activate) for mg_activate
    macrogiga_driver.o(i.radio_setBleAddr) refers to macrogiga_driver.o(i.mg_writeBuf) for mg_writeBuf
    macrogiga_driver.o(i.radio_setBleAddr) refers to hwtest.o(.data) for myAddr
    macrogiga_driver.o(i.radio_setCal_nonBlocking) refers to macrogiga_driver.o(.data) for .data
    macrogiga_driver.o(i.radio_setChannel) refers to macrogiga_driver.o(i.mg_writeReg) for mg_writeReg
    macrogiga_driver.o(i.radio_setCrcInit) refers to macrogiga_driver.o(i.mg_writeBuf) for mg_writeBuf
    macrogiga_driver.o(i.radio_setIrqMask) refers to macrogiga_driver.o(i.mg_writeBuf) for mg_writeBuf
    macrogiga_driver.o(i.radio_setMode) refers to macrogiga_driver.o(i.mg_writeReg) for mg_writeReg
    macrogiga_driver.o(i.radio_setPaGain) refers to macrogiga_driver.o(i.mg_writeBuf) for mg_writeBuf
    macrogiga_driver.o(i.radio_setScanAInitA) refers to macrogiga_driver.o(i.mg_writeBuf) for mg_writeBuf
    macrogiga_driver.o(i.radio_setStartTime) refers to macrogiga_driver.o(i.mg_writeBuf) for mg_writeBuf
    macrogiga_driver.o(i.radio_setTimeout) refers to macrogiga_driver.o(i.mg_writeBuf) for mg_writeBuf
    macrogiga_driver.o(i.radio_setTxPayload) refers to macrogiga_driver.o(i.mg_writeBuf) for mg_writeBuf
    macrogiga_driver.o(i.radio_setTxPduHeader) refers to macrogiga_driver.o(i.mg_writeBuf) for mg_writeBuf
    macrogiga_driver.o(i.radio_setWakeupTime) refers to macrogiga_driver.o(i.mg_writeBuf) for mg_writeBuf
    macrogiga_driver.o(i.radio_setXtal) refers to macrogiga_driver.o(i.mg_activate) for mg_activate
    macrogiga_driver.o(i.radio_setXtal) refers to macrogiga_driver.o(i.mg_writeBuf) for mg_writeBuf
    macrogiga_driver.o(i.radio_sleep) refers to macrogiga_driver.o(i.mg_writeBuf) for mg_writeBuf
    macrogiga_driver.o(i.radio_standby) refers to macrogiga_driver.o(i.mg_activate) for mg_activate
    macrogiga_driver.o(i.radio_standby) refers to macrogiga_driver.o(i.mg_writeReg) for mg_writeReg
    macrogiga_driver.o(i.radio_standby) refers to macrogiga_driver.o(i.mg_writeBuf) for mg_writeBuf
    macrogiga_driver.o(i.radio_wakeup) refers to macrogiga_driver.o(i.mg_writeReg) for mg_writeReg
    data_queue.o(i.create_node) refers to memcpya.o(.text) for __aeabi_memcpy
    data_queue.o(i.create_node) refers to data_queue.o(.data) for .data
    data_queue.o(i.create_node) refers to data_queue.o(.bss) for .bss
    data_queue.o(i.get_node_free) refers to data_queue.o(.data) for .data
    data_queue.o(i.is_node_empty) refers to data_queue.o(.data) for .data
    data_queue.o(i.queue_init) refers to data_queue.o(.data) for .data
    data_queue.o(i.queue_push) refers to data_queue.o(i.create_node) for create_node
    data_queue.o(i.readQueue) refers to data_queue.o(i.queue_empty) for queue_empty
    data_queue.o(i.readQueue) refers to data_queue.o(i.queue_pop) for queue_pop
    data_queue.o(i.readQueue) refers to memcpya.o(.text) for __aeabi_memcpy
    data_queue.o(i.readQueue) refers to data_queue.o(.data) for .data
    data_queue.o(i.read_queue_error_code) refers to data_queue.o(.data) for .data
    slave_dispatch.o(i.GenerateTxQueue) refers to memcpya.o(.text) for __aeabi_memcpy
    slave_dispatch.o(i.GenerateTxQueue) refers to sm.o(i.sm_process_pdu) for sm_process_pdu
    slave_dispatch.o(i.GenerateTxQueue) refers to data_queue.o(i.queue_push) for queue_push
    slave_dispatch.o(i.GenerateTxQueue) refers to slave_dispatch.o(.data) for .data
    slave_dispatch.o(i.GenerateTxQueue) refers to ll_control.o(.data) for StartEncryption
    slave_dispatch.o(i.SaveCurrentHdr) refers to slave_dispatch.o(.data) for .data
    slave_dispatch.o(i.sOpCheck_Start) refers to data_queue.o(i.queue_init) for queue_init
    slave_dispatch.o(i.sOpCheck_Start) refers to slave_dispatch.o(.constdata) for .constdata
    slave_dispatch.o(i.sOpCheck_Start) refers to slave_dispatch.o(.data) for .data
    slave_dispatch.o(i.s_opcodeCheck) refers to data_queue.o(i.readQueue) for readQueue
    slave_dispatch.o(i.s_opcodeCheck) refers to ll_control.o(i.txRsp) for txRsp
    slave_dispatch.o(i.s_opcodeCheck) refers to slave_dispatch.o(.data) for .data
    slave_dispatch.o(i.s_opcodeCheckOld) refers to memcpya.o(.text) for __aeabi_memcpy
    slave_dispatch.o(i.s_opcodeCheckOld) refers to sm.o(i.sm_parser) for sm_parser
    slave_dispatch.o(i.s_opcodeCheckOld) refers to l2cap.o(i.SIG_CommandRej) for SIG_CommandRej
    slave_dispatch.o(i.s_opcodeCheckOld) refers to app.o(i.gatt_user_send_notify_data_callback) for gatt_user_send_notify_data_callback
    slave_dispatch.o(i.s_opcodeCheckOld) refers to fsm_sconn.o(i.sconnConUpdate) for sconnConUpdate
    slave_dispatch.o(i.s_opcodeCheckOld) refers to ll_control.o(i.s_llChmReq) for s_llChmReq
    slave_dispatch.o(i.s_opcodeCheckOld) refers to fsm_sconn.o(i.sconnUpChm) for sconnUpChm
    slave_dispatch.o(i.s_opcodeCheckOld) refers to ll_control.o(i.s_llTer) for s_llTer
    slave_dispatch.o(i.s_opcodeCheckOld) refers to ll_control.o(i.s_llEncReq) for s_llEncReq
    slave_dispatch.o(i.s_opcodeCheckOld) refers to ll_control.o(i.s_llStartEncRsp) for s_llStartEncRsp
    slave_dispatch.o(i.s_opcodeCheckOld) refers to ll_control.o(i.s_llFea) for s_llFea
    slave_dispatch.o(i.s_opcodeCheckOld) refers to ll_control.o(i.s_llVersion) for s_llVersion
    slave_dispatch.o(i.s_opcodeCheckOld) refers to ll_control.o(i.s_llConnParaRsp) for s_llConnParaRsp
    slave_dispatch.o(i.s_opcodeCheckOld) refers to ll_control.o(i.s_llUnknownRsp) for s_llUnknownRsp
    slave_dispatch.o(i.s_opcodeCheckOld) refers to ll_control.o(i.s_llTerminate) for s_llTerminate
    slave_dispatch.o(i.s_opcodeCheckOld) refers to ll_control.o(i.s_llSmPair) for s_llSmPair
    slave_dispatch.o(i.s_opcodeCheckOld) refers to ll_control.o(i.s_llSmPairConfirm) for s_llSmPairConfirm
    slave_dispatch.o(i.s_opcodeCheckOld) refers to ll_control.o(i.s_llSmPairRand) for s_llSmPairRand
    slave_dispatch.o(i.s_opcodeCheckOld) refers to att.o(i.att_ErrorFd_eCode) for att_ErrorFd_eCode
    slave_dispatch.o(i.s_opcodeCheckOld) refers to att.o(i.att_exMtuReq) for att_exMtuReq
    slave_dispatch.o(i.s_opcodeCheckOld) refers to att.o(i.att_server_findIn) for att_server_findIn
    slave_dispatch.o(i.s_opcodeCheckOld) refers to att.o(i.att_server_findByType) for att_server_findByType
    slave_dispatch.o(i.s_opcodeCheckOld) refers to att.o(i.att_server_rdByType) for att_server_rdByType
    slave_dispatch.o(i.s_opcodeCheckOld) refers to app.o(i.att_server_rdByGrType) for att_server_rdByGrType
    slave_dispatch.o(i.s_opcodeCheckOld) refers to app.o(i.server_rd_rsp) for server_rd_rsp
    slave_dispatch.o(i.s_opcodeCheckOld) refers to app.o(i.server_blob_rd_rsp) for server_blob_rd_rsp
    slave_dispatch.o(i.s_opcodeCheckOld) refers to att.o(i.ser_prepare_write_rsp) for ser_prepare_write_rsp
    slave_dispatch.o(i.s_opcodeCheckOld) refers to att.o(i.ser_execute_write_rsp) for ser_execute_write_rsp
    slave_dispatch.o(i.s_opcodeCheckOld) refers to app.o(i.ser_write_rsp) for ser_write_rsp
    slave_dispatch.o(i.s_opcodeCheckOld) refers to slave_dispatch.o(.bss) for .bss
    slave_dispatch.o(i.s_opcodeCheckOld) refers to slave_dispatch.o(.data) for .data
    slave_dispatch.o(i.s_opcodeCheckOld) refers to ll_control.o(.data) for StartEncryption
    slave_dispatch.o(.constdata) refers to slave_dispatch.o(i.s_opcodeCheck) for s_opcodeCheck
    fsm_adv_generic.o(i.CheckMcuTimerForRcCal) refers to at32f4xx_it.o(i.GetSysTickCount) for GetSysTickCount
    fsm_adv_generic.o(i.CheckMcuTimerForRcCal) refers to fsm_adv_generic.o(.data) for .data
    fsm_adv_generic.o(i.DoRcConvert_HF_LF_COEF) refers to fsm_adv_generic.o(.data) for .data
    fsm_adv_generic.o(i.DoRcConvert_LF_AMPLE) refers to fsm_adv_generic.o(.data) for .data
    fsm_adv_generic.o(i.GetAdvCh) refers to fsm_adv_generic.o(.data) for .data
    fsm_adv_generic.o(i.GetAdvEnable) refers to fsm_adv_generic.o(.data) for .data
    fsm_adv_generic.o(i.SetFixAdvChannel) refers to fsm_adv_generic.o(.data) for .data
    fsm_adv_generic.o(i.StartBBTimerForRcCal) refers to at32f4xx_it.o(i.GetSysTickCount) for GetSysTickCount
    fsm_adv_generic.o(i.StartBBTimerForRcCal) refers to fsm_adv_generic.o(.data) for .data
    fsm_adv_generic.o(i.adv_generic_onRxAA) refers to macrogiga_driver.o(i.radio_setMode) for radio_setMode
    fsm_adv_generic.o(i.adv_generic_onRxAA) refers to fsm_adv_generic.o(i.StartBBTimerForRcCal) for StartBBTimerForRcCal
    fsm_adv_generic.o(i.adv_generic_onRxAA) refers to macrogiga_driver.o(i.radio_sleep) for radio_sleep
    fsm_adv_generic.o(i.adv_generic_onRxAA) refers to fsm_adv_generic.o(.data) for .data
    fsm_adv_generic.o(i.adv_generic_onRxPDU) refers to macrogiga_driver.o(i.radio_setStartTime) for radio_setStartTime
    fsm_adv_generic.o(i.adv_generic_onRxPDU) refers to macrogiga_driver.o(i.radio_setAdvHeader) for radio_setAdvHeader
    fsm_adv_generic.o(i.adv_generic_onRxPDU) refers to macrogiga_driver.o(i.radio_setAdvPayload) for radio_setAdvPayload
    fsm_adv_generic.o(i.adv_generic_onRxPDU) refers to memcmp.o(.text) for memcmp
    fsm_adv_generic.o(i.adv_generic_onRxPDU) refers to macrogiga_driver.o(i.radio_sleep) for radio_sleep
    fsm_adv_generic.o(i.adv_generic_onRxPDU) refers to fsm_sconn.o(i.bb_sconnStart) for bb_sconnStart
    fsm_adv_generic.o(i.adv_generic_onRxPDU) refers to macrogiga_driver.o(i.mg_activate) for mg_activate
    fsm_adv_generic.o(i.adv_generic_onRxPDU) refers to macrogiga_driver.o(i.mg_readReg) for mg_readReg
    fsm_adv_generic.o(i.adv_generic_onRxPDU) refers to fsm_adv_generic.o(.data) for .data
    fsm_adv_generic.o(i.adv_generic_onRxPDU) refers to hwtest.o(.data) for myAddr
    fsm_adv_generic.o(i.adv_generic_onRxPDU) refers to fsm_sconn.o(.data) for rssi_data
    fsm_adv_generic.o(i.adv_generic_onSleep) refers to fsm_adv_generic.o(i.bb_DoRcCal) for bb_DoRcCal
    fsm_adv_generic.o(i.adv_generic_onSleep) refers to macrogiga_driver.o(i.radio_setTimeout) for radio_setTimeout
    fsm_adv_generic.o(i.adv_generic_onSleep) refers to macrogiga_driver.o(i.radio_setChannel) for radio_setChannel
    fsm_adv_generic.o(i.adv_generic_onSleep) refers to hwtest.o(i.SetMcuSleepFlag) for SetMcuSleepFlag
    fsm_adv_generic.o(i.adv_generic_onSleep) refers to macrogiga_driver.o(i.radio_wakeup) for radio_wakeup
    fsm_adv_generic.o(i.adv_generic_onSleep) refers to macrogiga_driver.o(i.mg_activate) for mg_activate
    fsm_adv_generic.o(i.adv_generic_onSleep) refers to macrogiga_driver.o(i.mg_writeReg) for mg_writeReg
    fsm_adv_generic.o(i.adv_generic_onSleep) refers to fsm_adv_generic.o(i.DoRcConvert_LF_AMPLE) for DoRcConvert_LF_AMPLE
    fsm_adv_generic.o(i.adv_generic_onSleep) refers to fsm_sconn.o(i.ReSConnect) for ReSConnect
    fsm_adv_generic.o(i.adv_generic_onSleep) refers to ll_control.o(i.restoretxbuf) for restoretxbuf
    fsm_adv_generic.o(i.adv_generic_onSleep) refers to fsm_mconn_sleep.o(i.ReMConnect) for ReMConnect
    fsm_adv_generic.o(i.adv_generic_onSleep) refers to macrogiga_driver.o(i.radio_setWakeupTime) for radio_setWakeupTime
    fsm_adv_generic.o(i.adv_generic_onSleep) refers to macrogiga_driver.o(i.radio_do_cal_start) for radio_do_cal_start
    fsm_adv_generic.o(i.adv_generic_onSleep) refers to macrogiga_driver.o(i.radio_do_cal) for radio_do_cal
    fsm_adv_generic.o(i.adv_generic_onSleep) refers to fsm_adv_generic.o(.data) for .data
    fsm_adv_generic.o(i.adv_generic_onSleep) refers to hwtest.o(.data) for s_flags
    fsm_adv_generic.o(i.adv_generic_onSleep) refers to macrogiga_driver.o(.data) for radio_rf_cal_method
    fsm_adv_generic.o(i.adv_generic_onStart) refers to macrogiga_driver.o(i.radio_setChannel) for radio_setChannel
    fsm_adv_generic.o(i.adv_generic_onStart) refers to macrogiga_driver.o(i.radio_setTimeout) for radio_setTimeout
    fsm_adv_generic.o(i.adv_generic_onStart) refers to macrogiga_driver.o(i.radio_setIrqMask) for radio_setIrqMask
    fsm_adv_generic.o(i.adv_generic_onStart) refers to macrogiga_driver.o(i.radio_wakeup) for radio_wakeup
    fsm_adv_generic.o(i.adv_generic_onStart) refers to fsm_sconn.o(i.sconn_ReSetLLSupvTimer) for sconn_ReSetLLSupvTimer
    fsm_adv_generic.o(i.adv_generic_onStart) refers to fsm_adv_generic.o(.data) for .data
    fsm_adv_generic.o(i.adv_generic_onTxStarted) refers to macrogiga_driver.o(i.radio_sleep) for radio_sleep
    fsm_adv_generic.o(i.adv_generic_onTxStarted) refers to macrogiga_driver.o(i.radio_setTimeout) for radio_setTimeout
    fsm_adv_generic.o(i.adv_generic_onTxStarted) refers to macrogiga_driver.o(i.radio_setMode) for radio_setMode
    fsm_adv_generic.o(i.adv_generic_onTxStarted) refers to macrogiga_driver.o(i.radio_setStartTime) for radio_setStartTime
    fsm_adv_generic.o(i.adv_generic_onTxStarted) refers to fsm_adv_generic.o(.data) for .data
    fsm_adv_generic.o(i.adv_generic_onWakeup) refers to macrogiga_driver.o(i.radio_setMode) for radio_setMode
    fsm_adv_generic.o(i.adv_generic_onWakeup) refers to macrogiga_driver.o(i.radio_setTimeout) for radio_setTimeout
    fsm_adv_generic.o(i.adv_generic_onWakeup) refers to macrogiga_driver.o(i.radio_setStartTime) for radio_setStartTime
    fsm_adv_generic.o(i.adv_generic_onWakeup) refers to macrogiga_driver.o(i.radio_setAdvHeader) for radio_setAdvHeader
    fsm_adv_generic.o(i.adv_generic_onWakeup) refers to macrogiga_driver.o(i.radio_setAdvPayload) for radio_setAdvPayload
    fsm_adv_generic.o(i.adv_generic_onWakeup) refers to fsm_adv_generic.o(.data) for .data
    fsm_adv_generic.o(i.bb_DoRcCal) refers to fsm_adv_generic.o(.data) for .data
    fsm_adv_generic.o(i.bb_advCalTimerIrq) refers to macrogiga_driver.o(i.radio_sleep) for radio_sleep
    fsm_adv_generic.o(i.bb_advGenericSetup) refers to fsm_adv_generic.o(.data) for .data
    fsm_adv_generic.o(i.bb_advGenericStart) refers to fsm_adv_generic.o(.constdata) for .constdata
    fsm_adv_generic.o(i.bb_advGenericStart) refers to fsm_base.o(.data) for bb_fsm
    fsm_adv_generic.o(i.ble_set_adv_enableFlag) refers to macrogiga_driver.o(i.mg_activate) for mg_activate
    fsm_adv_generic.o(i.ble_set_adv_enableFlag) refers to macrogiga_driver.o(i.mg_writeReg) for mg_writeReg
    fsm_adv_generic.o(i.ble_set_adv_enableFlag) refers to macrogiga_driver.o(i.radio_wakeup) for radio_wakeup
    fsm_adv_generic.o(i.ble_set_adv_enableFlag) refers to fsm_adv_generic.o(.data) for .data
    fsm_adv_generic.o(i.ble_set_wakeupdly) refers to fsm_adv_generic.o(.data) for .data
    fsm_adv_generic.o(.constdata) refers to fsm_adv_generic.o(i.adv_generic_onStart) for adv_generic_onStart
    fsm_adv_generic.o(.constdata) refers to fsm_adv_generic.o(i.adv_generic_onWakeup) for adv_generic_onWakeup
    fsm_adv_generic.o(.constdata) refers to fsm_adv_generic.o(i.adv_generic_onRxAA) for adv_generic_onRxAA
    fsm_adv_generic.o(.constdata) refers to fsm_adv_generic.o(i.adv_generic_onRxPDU) for adv_generic_onRxPDU
    fsm_adv_generic.o(.constdata) refers to fsm_adv_generic.o(i.adv_generic_onTxStarted) for adv_generic_onTxStarted
    fsm_adv_generic.o(.constdata) refers to fsm_adv_generic.o(i.adv_generic_onSleep) for adv_generic_onSleep
    fsm_base.o(i.Tx_len) refers to fsm_base.o(.data) for .data
    fsm_base.o(i.bb_getConnState) refers to fsm_base.o(.data) for .data
    fsm_base.o(i.bb_setConnState) refers to fsm_base.o(.data) for .data
    fsm_scan.o(i.GetScanCh) refers to fsm_scan.o(.data) for .data
    fsm_scan.o(i.ScanDataGet) refers to fsm_scan.o(.data) for .data
    fsm_scan.o(i.ScanDataGet) refers to fsm_scan.o(.bss) for .bss
    fsm_scan.o(i.ScanDataSave) refers to memcpya.o(.text) for __aeabi_memcpy
    fsm_scan.o(i.ScanDataSave) refers to fsm_scan.o(.bss) for .bss
    fsm_scan.o(i.ScanDataSave) refers to fsm_scan.o(.data) for .data
    fsm_scan.o(i.bb_scanSetup) refers to fsm_scan.o(.data) for .data
    fsm_scan.o(i.bb_scanStart) refers to fsm_scan.o(.constdata) for .constdata
    fsm_scan.o(i.bb_scanStart) refers to fsm_base.o(.data) for bb_fsm
    fsm_scan.o(i.ble_master_setTargetDeviceAddr) refers to fsm_scan.o(.data) for .data
    fsm_scan.o(i.create_conn) refers to macrogiga_driver.o(i.radio_setStartTime) for radio_setStartTime
    fsm_scan.o(i.create_conn) refers to macrogiga_driver.o(i.radio_setAdvPayload) for radio_setAdvPayload
    fsm_scan.o(i.create_conn) refers to fsm_mconn_sleep.o(i.bb_mconnStart) for bb_mconnStart
    fsm_scan.o(i.create_conn) refers to fsm_scan.o(.data) for .data
    fsm_scan.o(i.mconn_SetConnInterval) refers to hwtest.o(i.update_scan_para) for update_scan_para
    fsm_scan.o(i.mconn_SetConnInterval) refers to fsm_scan.o(.data) for .data
    fsm_scan.o(i.scan_DoCal_reset) refers to fsm_scan.o(.data) for .data
    fsm_scan.o(i.scan_onRxAA) refers to macrogiga_driver.o(i.radio_setMode) for radio_setMode
    fsm_scan.o(i.scan_onRxAA) refers to macrogiga_driver.o(i.radio_sleep) for radio_sleep
    fsm_scan.o(i.scan_onRxAA) refers to fsm_scan.o(.data) for .data
    fsm_scan.o(i.scan_onRxPDU) refers to macrogiga_driver.o(i.radio_sleep) for radio_sleep
    fsm_scan.o(i.scan_onRxPDU) refers to fsm_adv_generic.o(i.GetAdvEnable) for GetAdvEnable
    fsm_scan.o(i.scan_onRxPDU) refers to fsm_scan.o(i.create_conn) for create_conn
    fsm_scan.o(i.scan_onRxPDU) refers to fsm_scan.o(i.ScanDataSave) for ScanDataSave
    fsm_scan.o(i.scan_onRxPDU) refers to macrogiga_driver.o(i.mg_activate) for mg_activate
    fsm_scan.o(i.scan_onRxPDU) refers to macrogiga_driver.o(i.mg_readReg) for mg_readReg
    fsm_scan.o(i.scan_onRxPDU) refers to macrogiga_driver.o(i.mg_readBuf) for mg_readBuf
    fsm_scan.o(i.scan_onRxPDU) refers to fsm_scan.o(.data) for .data
    fsm_scan.o(i.scan_onRxPDU) refers to fsm_sconn.o(.data) for rssi_data
    fsm_scan.o(i.scan_onSleep) refers to macrogiga_driver.o(i.radio_setChannel) for radio_setChannel
    fsm_scan.o(i.scan_onSleep) refers to fsm_adv_generic.o(i.bb_DoRcCal) for bb_DoRcCal
    fsm_scan.o(i.scan_onSleep) refers to macrogiga_driver.o(i.radio_do_cal_start) for radio_do_cal_start
    fsm_scan.o(i.scan_onSleep) refers to macrogiga_driver.o(i.radio_do_cal) for radio_do_cal
    fsm_scan.o(i.scan_onSleep) refers to fsm_scan.o(.data) for .data
    fsm_scan.o(i.scan_onSleep) refers to fsm_base.o(.data) for wakeup_hfclk
    fsm_scan.o(i.scan_onSleep) refers to fsm_base.o(.data) for wakeup_lfclk
    fsm_scan.o(i.scan_onSleep) refers to macrogiga_driver.o(.data) for radio_rf_cal_method
    fsm_scan.o(i.scan_onStart) refers to macrogiga_driver.o(i.radio_setChannel) for radio_setChannel
    fsm_scan.o(i.scan_onStart) refers to macrogiga_driver.o(i.radio_setTimeout) for radio_setTimeout
    fsm_scan.o(i.scan_onStart) refers to macrogiga_driver.o(i.radio_wakeup) for radio_wakeup
    fsm_scan.o(i.scan_onStart) refers to fsm_scan.o(.data) for .data
    fsm_scan.o(i.scan_onStart) refers to hwtest.o(.data) for m_flags
    fsm_scan.o(i.scan_onTxStarted) refers to macrogiga_driver.o(i.radio_sleep) for radio_sleep
    fsm_scan.o(i.scan_onWakeup) refers to macrogiga_driver.o(i.radio_setMode) for radio_setMode
    fsm_scan.o(i.scan_onWakeup) refers to macrogiga_driver.o(i.radio_setAdvHeader) for radio_setAdvHeader
    fsm_scan.o(i.scan_onWakeup) refers to macrogiga_driver.o(i.radio_setScanAInitA) for radio_setScanAInitA
    fsm_scan.o(i.scan_onWakeup) refers to macrogiga_driver.o(i.radio_setStartTime) for radio_setStartTime
    fsm_scan.o(i.scan_onWakeup) refers to fsm_scan.o(.data) for .data
    fsm_scan.o(.constdata) refers to fsm_scan.o(i.scan_onStart) for scan_onStart
    fsm_scan.o(.constdata) refers to fsm_scan.o(i.scan_onWakeup) for scan_onWakeup
    fsm_scan.o(.constdata) refers to fsm_scan.o(i.scan_onRxAA) for scan_onRxAA
    fsm_scan.o(.constdata) refers to fsm_scan.o(i.scan_onRxPDU) for scan_onRxPDU
    fsm_scan.o(.constdata) refers to fsm_scan.o(i.scan_onTxStarted) for scan_onTxStarted
    fsm_scan.o(.constdata) refers to fsm_scan.o(i.scan_onSleep) for scan_onSleep
    l2cap.o(i.SIG_CommandRej) refers to slave_dispatch.o(i.GenerateTxQueue) for GenerateTxQueue
    l2cap.o(i.SIG_ConnParaUpdateReq) refers to slave_dispatch.o(i.GenerateTxQueue) for GenerateTxQueue
    l2cap.o(i.SIG_ConnParaUpdateReq) refers to l2cap.o(.data) for .data
    ll_control.o(i.GetLTKInfo) refers to ll_control.o(.data) for .data
    ll_control.o(i.SaveInitAddr) refers to ll_control.o(.data) for .data
    ll_control.o(i.ble_disconnect) refers to fsm_base.o(i.bb_getConnState) for bb_getConnState
    ll_control.o(i.ble_disconnect) refers to ll_control.o(i.s_llTerminate) for s_llTerminate
    ll_control.o(i.connUpdateChm) refers to ll_control.o(.data) for .data
    ll_control.o(i.connUpdatePtr) refers to ll_control.o(.data) for .data
    ll_control.o(i.empty_pk) refers to macrogiga_driver.o(i.radio_setTxPduHeader) for radio_setTxPduHeader
    ll_control.o(i.empty_pk) refers to fsm_base.o(i.Tx_len) for Tx_len
    ll_control.o(i.reset_sm_flags) refers to ll_control.o(.data) for .data
    ll_control.o(i.restoretxbuf) refers to macrogiga_driver.o(i.radio_setTxPduHeader) for radio_setTxPduHeader
    ll_control.o(i.restoretxbuf) refers to macrogiga_driver.o(i.radio_setTxPayload) for radio_setTxPayload
    ll_control.o(i.restoretxbuf) refers to ll_control.o(.data) for .data
    ll_control.o(i.restoretxbuf) refers to ll_control.o(.bss) for .bss
    ll_control.o(i.s_llConnParaReq) refers to memcpya.o(.text) for __aeabi_memcpy4
    ll_control.o(i.s_llConnParaReq) refers to slave_dispatch.o(i.GenerateTxQueue) for GenerateTxQueue
    ll_control.o(i.s_llConnParaReq) refers to ll_control.o(.data) for .data
    ll_control.o(i.s_llConnParaRsp) refers to memcpya.o(.text) for __aeabi_memcpy4
    ll_control.o(i.s_llConnParaRsp) refers to slave_dispatch.o(i.GenerateTxQueue) for GenerateTxQueue
    ll_control.o(i.s_llConnParaRsp) refers to ll_control.o(.data) for .data
    ll_control.o(i.s_llEncReq) refers to slave_dispatch.o(i.GenerateTxQueue) for GenerateTxQueue
    ll_control.o(i.s_llEncReq) refers to sm.o(i.Convert2BigLittleEndian) for Convert2BigLittleEndian
    ll_control.o(i.s_llEncReq) refers to sm.o(i.sm_generate_LTK) for sm_generate_LTK
    ll_control.o(i.s_llEncReq) refers to sm.o(i.mg_aes_encrypt) for mg_aes_encrypt
    ll_control.o(i.s_llEncReq) refers to sm.o(i.sm_Update_SK_IV) for sm_Update_SK_IV
    ll_control.o(i.s_llEncReq) refers to ll_control.o(.data) for .data
    ll_control.o(i.s_llEncReq) refers to ll_control.o(.constdata) for .constdata
    ll_control.o(i.s_llEncReq) refers to ll_control.o(.bss) for .bss
    ll_control.o(i.s_llFea) refers to slave_dispatch.o(i.GenerateTxQueue) for GenerateTxQueue
    ll_control.o(i.s_llFea) refers to ll_control.o(.data) for .data
    ll_control.o(i.s_llSmPair) refers to sm.o(i.s_llSmGetTKType) for s_llSmGetTKType
    ll_control.o(i.s_llSmPair) refers to slave_dispatch.o(i.GenerateTxQueue) for GenerateTxQueue
    ll_control.o(i.s_llSmPair) refers to ll_control.o(.data) for .data
    ll_control.o(i.s_llSmPairConfirm) refers to memseta.o(.text) for __aeabi_memclr4
    ll_control.o(i.s_llSmPairConfirm) refers to memcpya.o(.text) for __aeabi_memcpy
    ll_control.o(i.s_llSmPairConfirm) refers to sm.o(i.mg_aes_encrypt) for mg_aes_encrypt
    ll_control.o(i.s_llSmPairConfirm) refers to sm.o(i.sm_func_c1) for sm_func_c1
    ll_control.o(i.s_llSmPairConfirm) refers to sm.o(i.Convert2BigLittleEndian) for Convert2BigLittleEndian
    ll_control.o(i.s_llSmPairConfirm) refers to slave_dispatch.o(i.GenerateTxQueue) for GenerateTxQueue
    ll_control.o(i.s_llSmPairConfirm) refers to ll_control.o(.bss) for .bss
    ll_control.o(i.s_llSmPairConfirm) refers to ll_control.o(.data) for .data
    ll_control.o(i.s_llSmPairConfirm) refers to hwtest.o(.data) for myAddr
    ll_control.o(i.s_llSmPairFailed) refers to slave_dispatch.o(i.GenerateTxQueue) for GenerateTxQueue
    ll_control.o(i.s_llSmPairFailed) refers to ll_control.o(.data) for .data
    ll_control.o(i.s_llSmPairRand) refers to memseta.o(.text) for __aeabi_memclr4
    ll_control.o(i.s_llSmPairRand) refers to sm.o(i.Convert2BigLittleEndian) for Convert2BigLittleEndian
    ll_control.o(i.s_llSmPairRand) refers to memcpya.o(.text) for __aeabi_memcpy
    ll_control.o(i.s_llSmPairRand) refers to sm.o(i.sm_func_c1) for sm_func_c1
    ll_control.o(i.s_llSmPairRand) refers to ll_control.o(i.s_llSmPairFailed) for s_llSmPairFailed
    ll_control.o(i.s_llSmPairRand) refers to sm.o(i.sm_func_s1) for sm_func_s1
    ll_control.o(i.s_llSmPairRand) refers to slave_dispatch.o(i.GenerateTxQueue) for GenerateTxQueue
    ll_control.o(i.s_llSmPairRand) refers to ll_control.o(.data) for .data
    ll_control.o(i.s_llSmPairRand) refers to ll_control.o(.bss) for .bss
    ll_control.o(i.s_llSmPairRand) refers to hwtest.o(.data) for myAddr
    ll_control.o(i.s_llSmSecurityReq) refers to slave_dispatch.o(i.GenerateTxQueue) for GenerateTxQueue
    ll_control.o(i.s_llSmSecurityReq) refers to ll_control.o(.data) for .data
    ll_control.o(i.s_llStartEncRsp) refers to memseta.o(.text) for __aeabi_memclr4
    ll_control.o(i.s_llStartEncRsp) refers to slave_dispatch.o(i.GenerateTxQueue) for GenerateTxQueue
    ll_control.o(i.s_llStartEncRsp) refers to fsm_sconn.o(i.get_current_ch) for get_current_ch
    ll_control.o(i.s_llStartEncRsp) refers to sm.o(i.sm_generate_EDIV_Rand_LTK) for sm_generate_EDIV_Rand_LTK
    ll_control.o(i.s_llStartEncRsp) refers to memcpya.o(.text) for __aeabi_memcpy
    ll_control.o(i.s_llStartEncRsp) refers to sm.o(i.Convert2BigLittleEndian) for Convert2BigLittleEndian
    ll_control.o(i.s_llStartEncRsp) refers to ll_control.o(.data) for .data
    ll_control.o(i.s_llTer) refers to ll_control.o(i.empty_pk) for empty_pk
    ll_control.o(i.s_llTer) refers to fsm_base.o(i.bb_setConnState) for bb_setConnState
    ll_control.o(i.s_llTer) refers to ll_control.o(.data) for .data
    ll_control.o(i.s_llTerminate) refers to slave_dispatch.o(i.GenerateTxQueue) for GenerateTxQueue
    ll_control.o(i.s_llTerminate) refers to fsm_base.o(i.bb_setConnState) for bb_setConnState
    ll_control.o(i.s_llTerminate) refers to ll_control.o(.data) for .data
    ll_control.o(i.s_llUnknownRsp) refers to slave_dispatch.o(i.GenerateTxQueue) for GenerateTxQueue
    ll_control.o(i.s_llUnknownRsp) refers to ll_control.o(.data) for .data
    ll_control.o(i.s_llVersion) refers to slave_dispatch.o(i.GenerateTxQueue) for GenerateTxQueue
    ll_control.o(i.s_llVersion) refers to ll_control.o(.data) for .data
    ll_control.o(i.savetxbuf) refers to memcpya.o(.text) for __aeabi_memcpy
    ll_control.o(i.savetxbuf) refers to ll_control.o(.data) for .data
    ll_control.o(i.savetxbuf) refers to ll_control.o(.bss) for .bss
    ll_control.o(i.sconn_UpdateConnParaReq) refers to memcpya.o(.text) for __aeabi_memcpy4
    ll_control.o(i.sconn_UpdateConnParaReq) refers to fsm_sconn.o(i.sconn_getConnEvent) for sconn_getConnEvent
    ll_control.o(i.sconn_UpdateConnParaReq) refers to fsm_base.o(i.bb_getConnState) for bb_getConnState
    ll_control.o(i.sconn_UpdateConnParaReq) refers to slave_dispatch.o(i.GenerateTxQueue) for GenerateTxQueue
    ll_control.o(i.sconn_UpdateConnParaReq) refers to ll_control.o(.data) for .data
    ll_control.o(i.sconn_UpdateConnParaReqS) refers to memcpya.o(.text) for __aeabi_memcpy4
    ll_control.o(i.sconn_UpdateConnParaReqS) refers to fsm_sconn.o(i.sconn_getConnEvent) for sconn_getConnEvent
    ll_control.o(i.sconn_UpdateConnParaReqS) refers to fsm_base.o(i.bb_getConnState) for bb_getConnState
    ll_control.o(i.sconn_UpdateConnParaReqS) refers to slave_dispatch.o(i.GenerateTxQueue) for GenerateTxQueue
    ll_control.o(i.sconn_UpdateConnParaReqS) refers to ll_control.o(.data) for .data
    ll_control.o(i.sm_SetAddrType) refers to ll_control.o(.data) for .data
    ll_control.o(i.txRsp) refers to macrogiga_driver.o(i.radio_setTxPduHeader) for radio_setTxPduHeader
    ll_control.o(i.txRsp) refers to macrogiga_driver.o(i.radio_setTxPayload) for radio_setTxPayload
    ll_control.o(i.txRsp) refers to fsm_base.o(i.Tx_len) for Tx_len
    ll_control.o(i.txRsp) refers to ll_control.o(i.savetxbuf) for savetxbuf
    ll_control.o(.data) refers to ll_control.o(.bss) for connPaBuf
    ll_control.o(.data) refers to ll_control.o(.data) for chmPaBuf
    sm.o(i.SetLePinCode) refers to sm.o(.bss) for .bss
    sm.o(i.aes_encr) refers to sm.o(i.galois_mul2) for galois_mul2
    sm.o(i.aes_encr) refers to sm.o(.constdata) for .constdata
    sm.o(i.expandKey) refers to sm.o(.constdata) for .constdata
    sm.o(i.mg_aes_encrypt) refers to app.o(i.aes_encrypt_HW) for aes_encrypt_HW
    sm.o(i.mg_aes_encrypt) refers to sm.o(i.expandKey) for expandKey
    sm.o(i.mg_aes_encrypt) refers to sm.o(i.aes_encr) for aes_encr
    sm.o(i.mg_aes_encrypt) refers to sm.o(.bss) for .bss
    sm.o(i.s_llSmGetTKType) refers to sm.o(.bss) for .bss
    sm.o(i.sm_LL_Dec_m2s) refers to sm.o(i.mg_aes_encrypt) for mg_aes_encrypt
    sm.o(i.sm_LL_Dec_m2s) refers to sm.o(.data) for .data
    sm.o(i.sm_LL_Dec_m2s) refers to sm.o(.bss) for .bss
    sm.o(i.sm_Update_SK_IV) refers to sm.o(.bss) for .bss
    sm.o(i.sm_Update_SK_IV) refers to sm.o(.data) for .data
    sm.o(i.sm_cal_MIC_Enc_s2m) refers to sm.o(i.mg_aes_encrypt) for mg_aes_encrypt
    sm.o(i.sm_cal_MIC_Enc_s2m) refers to sm.o(.data) for .data
    sm.o(i.sm_cal_MIC_Enc_s2m) refers to sm.o(.bss) for .bss
    sm.o(i.sm_func_c1) refers to sm.o(i.Convert2BigLittleEndian) for Convert2BigLittleEndian
    sm.o(i.sm_func_c1) refers to sm.o(i.mg_aes_encrypt) for mg_aes_encrypt
    sm.o(i.sm_func_c1) refers to sm.o(.bss) for .bss
    sm.o(i.sm_func_s1) refers to sm.o(i.mg_aes_encrypt) for mg_aes_encrypt
    sm.o(i.sm_func_s1) refers to sm.o(.bss) for .bss
    sm.o(i.sm_function_d1) refers to sm.o(i.mg_aes_encrypt) for mg_aes_encrypt
    sm.o(i.sm_function_dm) refers to sm.o(i.mg_aes_encrypt) for mg_aes_encrypt
    sm.o(i.sm_generate_EDIV_Rand_LTK) refers to sm.o(i.sm_function_d1) for sm_function_d1
    sm.o(i.sm_generate_EDIV_Rand_LTK) refers to sm.o(i.mg_aes_encrypt) for mg_aes_encrypt
    sm.o(i.sm_generate_EDIV_Rand_LTK) refers to sm.o(i.sm_function_dm) for sm_function_dm
    sm.o(i.sm_generate_EDIV_Rand_LTK) refers to sm.o(.constdata) for .constdata
    sm.o(i.sm_generate_EDIV_Rand_LTK) refers to sm.o(.data) for .data
    sm.o(i.sm_generate_LTK) refers to sm.o(i.sm_function_d1) for sm_function_d1
    sm.o(i.sm_generate_LTK) refers to sm.o(i.sm_function_dm) for sm_function_dm
    sm.o(i.sm_generate_LTK) refers to sm.o(.constdata) for .constdata
    sm.o(i.sm_parser) refers to sm.o(i.sm_LL_Dec_m2s) for sm_LL_Dec_m2s
    sm.o(i.sm_parser) refers to ll_control.o(.data) for StartEncryption
    sm.o(i.sm_parser) refers to sm.o(.data) for .data
    sm.o(i.sm_process_pdu) refers to sm.o(i.sm_cal_MIC_Enc_s2m) for sm_cal_MIC_Enc_s2m
    sm.o(i.sm_process_pdu) refers to sm.o(.data) for .data
    fsm_sconn.o(i.ConnUpdate) refers to fsm_sconn.o(i.applyConnUpdate) for applyConnUpdate
    fsm_sconn.o(i.ConnUpdate) refers to fsm_sconn.o(i.sconn_onNumUsedCh) for sconn_onNumUsedCh
    fsm_sconn.o(i.ConnUpdate) refers to fsm_sconn.o(.data) for .data
    fsm_sconn.o(i.GetMasterDeviceMac) refers to fsm_sconn.o(.data) for .data
    fsm_sconn.o(i.GetRssiData) refers to fsm_sconn.o(.data) for .data
    fsm_sconn.o(i.ReSConnect) refers to hwtest.o(i.SetSwTimer) for SetSwTimer
    fsm_sconn.o(i.ReSConnect) refers to macrogiga_driver.o(i.radio_setCrcInit) for radio_setCrcInit
    fsm_sconn.o(i.ReSConnect) refers to macrogiga_driver.o(i.radio_setAccessCode) for radio_setAccessCode
    fsm_sconn.o(i.ReSConnect) refers to macrogiga_driver.o(i.radio_setWakeupTime) for radio_setWakeupTime
    fsm_sconn.o(i.ReSConnect) refers to macrogiga_driver.o(i.radio_setTimeout) for radio_setTimeout
    fsm_sconn.o(i.ReSConnect) refers to macrogiga_driver.o(i.radio_setChannel) for radio_setChannel
    fsm_sconn.o(i.ReSConnect) refers to macrogiga_driver.o(i.mg_activate) for mg_activate
    fsm_sconn.o(i.ReSConnect) refers to macrogiga_driver.o(i.mg_writeReg) for mg_writeReg
    fsm_sconn.o(i.ReSConnect) refers to fsm_base.o(.data) for bb_fsm
    fsm_sconn.o(i.ReSConnect) refers to fsm_sconn.o(.constdata) for .constdata
    fsm_sconn.o(i.ReSConnect) refers to fsm_sconn.o(.data) for .data
    fsm_sconn.o(i.ReSConnect) refers to hwtest.o(.data) for s_flags
    fsm_sconn.o(i.applyConnUpdate) refers to fsm_adv_generic.o(i.DoRcConvert_LF_AMPLE) for DoRcConvert_LF_AMPLE
    fsm_sconn.o(i.applyConnUpdate) refers to fsm_sconn.o(.data) for .data
    fsm_sconn.o(i.apply_connPara) refers to ll_control.o(i.SaveInitAddr) for SaveInitAddr
    fsm_sconn.o(i.apply_connPara) refers to ll_control.o(i.sm_SetAddrType) for sm_SetAddrType
    fsm_sconn.o(i.apply_connPara) refers to fsm_sconn.o(.data) for .data
    fsm_sconn.o(i.bb_sconnStart) refers to fsm_sconn.o(i.apply_connPara) for apply_connPara
    fsm_sconn.o(i.bb_sconnStart) refers to macrogiga_driver.o(i.radio_sleep) for radio_sleep
    fsm_sconn.o(i.bb_sconnStart) refers to fsm_base.o(i.bb_setConnState) for bb_setConnState
    fsm_sconn.o(i.bb_sconnStart) refers to hwtest.o(i.SetSwTimer) for SetSwTimer
    fsm_sconn.o(i.bb_sconnStart) refers to ll_control.o(i.reset_sm_flags) for reset_sm_flags
    fsm_sconn.o(i.bb_sconnStart) refers to fsm_sconn.o(.constdata) for .constdata
    fsm_sconn.o(i.bb_sconnStart) refers to fsm_base.o(.data) for bb_fsm
    fsm_sconn.o(i.bb_sconnStart) refers to fsm_sconn.o(.data) for .data
    fsm_sconn.o(i.bb_sconnStart) refers to hwtest.o(.data) for s_flags
    fsm_sconn.o(i.ble_set_rxwindow) refers to fsm_sconn.o(.data) for .data
    fsm_sconn.o(i.connPaInstant) refers to fsm_sconn.o(.data) for .data
    fsm_sconn.o(i.get_current_ch) refers to fsm_sconn.o(.data) for .data
    fsm_sconn.o(i.sconnConUpdate) refers to fsm_sconn.o(.data) for .data
    fsm_sconn.o(i.sconnUpChm) refers to fsm_sconn.o(.data) for .data
    fsm_sconn.o(i.sconn_GetConnInterval) refers to fsm_sconn.o(.data) for .data
    fsm_sconn.o(i.sconn_ReSetLLSupvTimer) refers to hwtest.o(i.SetSwTimer) for SetSwTimer
    fsm_sconn.o(i.sconn_getConnEvent) refers to fsm_sconn.o(.data) for .data
    fsm_sconn.o(i.sconn_onNumUsedCh) refers to fsm_sconn.o(.data) for .data
    fsm_sconn.o(i.sconn_onNumUsedCh) refers to fsm_sconn.o(.bss) for .bss
    fsm_sconn.o(i.sconn_onRxAA) refers to macrogiga_driver.o(i.radio_sleep) for radio_sleep
    fsm_sconn.o(i.sconn_onRxAA) refers to hwtest.o(.data) for s_flags
    fsm_sconn.o(i.sconn_onRxPDU) refers to hwtest.o(i.SetSwTimer) for SetSwTimer
    fsm_sconn.o(i.sconn_onRxPDU) refers to macrogiga_driver.o(i.radio_setStartTime) for radio_setStartTime
    fsm_sconn.o(i.sconn_onRxPDU) refers to slave_dispatch.o(i.SaveCurrentHdr) for SaveCurrentHdr
    fsm_sconn.o(i.sconn_onRxPDU) refers to macrogiga_driver.o(i.mg_activate) for mg_activate
    fsm_sconn.o(i.sconn_onRxPDU) refers to macrogiga_driver.o(i.mg_readReg) for mg_readReg
    fsm_sconn.o(i.sconn_onRxPDU) refers to fsm_sconn.o(.data) for .data
    fsm_sconn.o(i.sconn_onRxPDU) refers to hwtest.o(.data) for s_flags
    fsm_sconn.o(i.sconn_onRxPDU) refers to slave_dispatch.o(.data) for s_opcodeChe
    fsm_sconn.o(i.sconn_onSleep) refers to fsm_base.o(i.bb_getConnState) for bb_getConnState
    fsm_sconn.o(i.sconn_onSleep) refers to fsm_adv_generic.o(i.DoRcConvert_LF_AMPLE) for DoRcConvert_LF_AMPLE
    fsm_sconn.o(i.sconn_onSleep) refers to fsm_sconn.o(i.sconn_onNumUsedCh) for sconn_onNumUsedCh
    fsm_sconn.o(i.sconn_onSleep) refers to slave_dispatch.o(i.sOpCheck_Start) for sOpCheck_Start
    fsm_sconn.o(i.sconn_onSleep) refers to app.o(i.ConnectStausUpdate) for ConnectStausUpdate
    fsm_sconn.o(i.sconn_onSleep) refers to fsm_adv_generic.o(i.GetAdvEnable) for GetAdvEnable
    fsm_sconn.o(i.sconn_onSleep) refers to hwtest.o(i.SetMcuSleepFlag) for SetMcuSleepFlag
    fsm_sconn.o(i.sconn_onSleep) refers to hwtest.o(i.ble_set_adv_type) for ble_set_adv_type
    fsm_sconn.o(i.sconn_onSleep) refers to hwtest.o(i.test_adv_generic) for test_adv_generic
    fsm_sconn.o(i.sconn_onSleep) refers to macrogiga_driver.o(i.radio_getHdr) for radio_getHdr
    fsm_sconn.o(i.sconn_onSleep) refers to macrogiga_driver.o(i.radio_getPdu) for radio_getPdu
    fsm_sconn.o(i.sconn_onSleep) refers to slave_dispatch.o(i.s_opcodeCheckOld) for s_opcodeCheckOld
    fsm_sconn.o(i.sconn_onSleep) refers to fsm_adv_generic.o(i.DoRcConvert_HF_LF_COEF) for DoRcConvert_HF_LF_COEF
    fsm_sconn.o(i.sconn_onSleep) refers to data_queue.o(i.is_node_empty) for is_node_empty
    fsm_sconn.o(i.sconn_onSleep) refers to fsm_sconn.o(i.ConnUpdate) for ConnUpdate
    fsm_sconn.o(i.sconn_onSleep) refers to fsm_sconn.o(i.ReSConnect) for ReSConnect
    fsm_sconn.o(i.sconn_onSleep) refers to hwtest.o(.data) for s_flags
    fsm_sconn.o(i.sconn_onSleep) refers to fsm_sconn.o(.data) for .data
    fsm_sconn.o(i.sconn_onSleep) refers to fsm_sconn.o(.bss) for .bss
    fsm_sconn.o(i.sconn_onSleep) refers to fsm_base.o(.data) for wakeup_lfclk
    fsm_sconn.o(i.sconn_onSleep) refers to fsm_adv_generic.o(.data) for WakeupDelay
    fsm_sconn.o(i.sconn_onTxStarted) refers to fsm_sconn.o(i.sconn_onRxAA) for sconn_onRxAA
    fsm_sconn.o(i.sconn_onTxStarted) refers to macrogiga_driver.o(i.radio_sleep) for radio_sleep
    fsm_sconn.o(i.sconn_onTxStarted) refers to hwtest.o(.data) for s_flags
    fsm_sconn.o(i.sconn_onWakeup) refers to hwtest.o(i.IsSwTimeOut) for IsSwTimeOut
    fsm_sconn.o(i.sconn_onWakeup) refers to fsm_base.o(i.bb_setConnState) for bb_setConnState
    fsm_sconn.o(i.sconn_onWakeup) refers to macrogiga_driver.o(i.radio_sleep) for radio_sleep
    fsm_sconn.o(i.sconn_onWakeup) refers to macrogiga_driver.o(i.radio_setMode) for radio_setMode
    fsm_sconn.o(i.sconn_onWakeup) refers to macrogiga_driver.o(i.radio_setStartTime) for radio_setStartTime
    fsm_sconn.o(i.sconn_onWakeup) refers to fsm_sconn.o(.data) for .data
    fsm_sconn.o(i.sconn_onWakeup) refers to fsm_adv_generic.o(.data) for WakeupDelay
    fsm_sconn.o(.constdata) refers to fsm_sconn.o(i.sconn_onWakeup) for sconn_onWakeup
    fsm_sconn.o(.constdata) refers to fsm_sconn.o(i.sconn_onRxAA) for sconn_onRxAA
    fsm_sconn.o(.constdata) refers to fsm_sconn.o(i.sconn_onRxPDU) for sconn_onRxPDU
    fsm_sconn.o(.constdata) refers to fsm_sconn.o(i.sconn_onTxStarted) for sconn_onTxStarted
    fsm_sconn.o(.constdata) refers to fsm_sconn.o(i.sconn_onSleep) for sconn_onSleep
    fsm_sconn.o(.data) refers to fsm_sconn.o(.data) for chmPaBuf
    fsm_sconn.o(.data) refers to fsm_sconn.o(.bss) for connPaBuf
    fsm_mconn_sleep.o(i.ReMConnect) refers to macrogiga_driver.o(i.radio_setAccessCode) for radio_setAccessCode
    fsm_mconn_sleep.o(i.ReMConnect) refers to macrogiga_driver.o(i.radio_setCrcInit) for radio_setCrcInit
    fsm_mconn_sleep.o(i.ReMConnect) refers to macrogiga_driver.o(i.radio_setTimeout) for radio_setTimeout
    fsm_mconn_sleep.o(i.ReMConnect) refers to macrogiga_driver.o(i.radio_setWakeupTime) for radio_setWakeupTime
    fsm_mconn_sleep.o(i.ReMConnect) refers to macrogiga_driver.o(i.radio_setChannel) for radio_setChannel
    fsm_mconn_sleep.o(i.ReMConnect) refers to fsm_base.o(.data) for bb_fsm
    fsm_mconn_sleep.o(i.ReMConnect) refers to fsm_mconn_sleep.o(.constdata) for .constdata
    fsm_mconn_sleep.o(i.ReMConnect) refers to hwtest.o(.data) for m_flags
    fsm_mconn_sleep.o(i.ReMConnect) refers to fsm_mconn_sleep.o(.bss) for .bss
    fsm_mconn_sleep.o(i.ReMConnect) refers to fsm_mconn_sleep.o(.data) for .data
    fsm_mconn_sleep.o(i.bb_UpdateReq) refers to macrogiga_driver.o(i.radio_setTxPduHeader) for radio_setTxPduHeader
    fsm_mconn_sleep.o(i.bb_UpdateReq) refers to macrogiga_driver.o(i.radio_setTxPayload) for radio_setTxPayload
    fsm_mconn_sleep.o(i.bb_UpdateReq) refers to fsm_mconn_sleep.o(.data) for .data
    fsm_mconn_sleep.o(i.bb_mconnStart) refers to data_queue.o(i.queue_init) for queue_init
    fsm_mconn_sleep.o(i.bb_mconnStart) refers to master_dispatch.o(i.mOpCheck_Start) for mOpCheck_Start
    fsm_mconn_sleep.o(i.bb_mconnStart) refers to fsm_base.o(i.bb_setConnState) for bb_setConnState
    fsm_mconn_sleep.o(i.bb_mconnStart) refers to hwtest.o(i.SetSwTimer) for SetSwTimer
    fsm_mconn_sleep.o(i.bb_mconnStart) refers to fsm_mconn_sleep.o(.constdata) for .constdata
    fsm_mconn_sleep.o(i.bb_mconnStart) refers to fsm_base.o(.data) for bb_fsm
    fsm_mconn_sleep.o(i.bb_mconnStart) refers to fsm_mconn_sleep.o(.data) for .data
    fsm_mconn_sleep.o(i.bb_mconnStart) refers to fsm_mconn_sleep.o(.bss) for .bss
    fsm_mconn_sleep.o(i.bb_mconnStart) refers to hwtest.o(.data) for m_flags
    fsm_mconn_sleep.o(i.mconn_ReSetLLSupvTimer) refers to hwtest.o(i.SetSwTimer) for SetSwTimer
    fsm_mconn_sleep.o(i.mconn_onChannelSelection) refers to fsm_mconn_sleep.o(.data) for .data
    fsm_mconn_sleep.o(i.mconn_onChannelSelection) refers to fsm_mconn_sleep.o(.bss) for .bss
    fsm_mconn_sleep.o(i.mconn_onRxAA) refers to macrogiga_driver.o(i.radio_sleep) for radio_sleep
    fsm_mconn_sleep.o(i.mconn_onRxAA) refers to fsm_mconn_sleep.o(.data) for .data
    fsm_mconn_sleep.o(i.mconn_onRxPDU) refers to hwtest.o(i.SetSwTimer) for SetSwTimer
    fsm_mconn_sleep.o(i.mconn_onRxPDU) refers to macrogiga_driver.o(i.radio_sleep) for radio_sleep
    fsm_mconn_sleep.o(i.mconn_onRxPDU) refers to fsm_mconn_sleep.o(.data) for .data
    fsm_mconn_sleep.o(i.mconn_onSleep) refers to fsm_base.o(i.bb_setConnState) for bb_setConnState
    fsm_mconn_sleep.o(i.mconn_onSleep) refers to fsm_base.o(i.bb_getConnState) for bb_getConnState
    fsm_mconn_sleep.o(i.mconn_onSleep) refers to macrogiga_driver.o(i.radio_setAccessCode) for radio_setAccessCode
    fsm_mconn_sleep.o(i.mconn_onSleep) refers to macrogiga_driver.o(i.radio_setCrcInit) for radio_setCrcInit
    fsm_mconn_sleep.o(i.mconn_onSleep) refers to app.o(i.ConnectStausUpdate) for ConnectStausUpdate
    fsm_mconn_sleep.o(i.mconn_onSleep) refers to fsm_scan.o(i.bb_scanStart) for bb_scanStart
    fsm_mconn_sleep.o(i.mconn_onSleep) refers to fsm_adv_generic.o(i.DoRcConvert_LF_AMPLE) for DoRcConvert_LF_AMPLE
    fsm_mconn_sleep.o(i.mconn_onSleep) refers to fsm_mconn_sleep.o(i.mconn_onChannelSelection) for mconn_onChannelSelection
    fsm_mconn_sleep.o(i.mconn_onSleep) refers to fsm_adv_generic.o(i.GetAdvEnable) for GetAdvEnable
    fsm_mconn_sleep.o(i.mconn_onSleep) refers to fsm_mconn_sleep.o(i.ReMConnect) for ReMConnect
    fsm_mconn_sleep.o(i.mconn_onSleep) refers to master_dispatch.o(i.m_opcodeCheck_parser) for m_opcodeCheck_parser
    fsm_mconn_sleep.o(i.mconn_onSleep) refers to fsm_mconn_sleep.o(.bss) for .bss
    fsm_mconn_sleep.o(i.mconn_onSleep) refers to fsm_mconn_sleep.o(.data) for .data
    fsm_mconn_sleep.o(i.mconn_onSleep) refers to hwtest.o(.data) for m_flags
    fsm_mconn_sleep.o(i.mconn_onSleep) refers to fsm_base.o(.data) for wakeup_hfclk
    fsm_mconn_sleep.o(i.mconn_onSleep) refers to fsm_base.o(.data) for wakeup_lfclk
    fsm_mconn_sleep.o(i.mconn_onSleep) refers to master_dispatch.o(.data) for m_opcodeChe
    fsm_mconn_sleep.o(i.mconn_onStart) refers to macrogiga_driver.o(i.radio_setTimeout) for radio_setTimeout
    fsm_mconn_sleep.o(i.mconn_onStart) refers to macrogiga_driver.o(i.radio_sleep) for radio_sleep
    fsm_mconn_sleep.o(i.mconn_onStart) refers to fsm_mconn_sleep.o(.data) for .data
    fsm_mconn_sleep.o(i.mconn_onStart) refers to fsm_mconn_sleep.o(.bss) for .bss
    fsm_mconn_sleep.o(i.mconn_onStart) refers to master_dispatch.o(.data) for m_opcodeChe
    fsm_mconn_sleep.o(i.mconn_onTxStarted) refers to macrogiga_driver.o(i.radio_sleep) for radio_sleep
    fsm_mconn_sleep.o(i.mconn_onTxStarted) refers to macrogiga_driver.o(i.radio_setMode) for radio_setMode
    fsm_mconn_sleep.o(i.mconn_onTxStarted) refers to macrogiga_driver.o(i.radio_setStartTime) for radio_setStartTime
    fsm_mconn_sleep.o(i.mconn_onTxStarted) refers to hwtest.o(.data) for m_flags
    fsm_mconn_sleep.o(i.mconn_onTxStarted) refers to fsm_mconn_sleep.o(.data) for .data
    fsm_mconn_sleep.o(i.mconn_onTxStarted) refers to fsm_base.o(.data) for tx_len_hfclkb
    fsm_mconn_sleep.o(i.mconn_onWakeup) refers to macrogiga_driver.o(i.radio_setMode) for radio_setMode
    fsm_mconn_sleep.o(i.mconn_onWakeup) refers to macrogiga_driver.o(i.radio_setStartTime) for radio_setStartTime
    fsm_mconn_sleep.o(i.mconn_onWakeup) refers to fsm_mconn_sleep.o(.data) for .data
    fsm_mconn_sleep.o(.constdata) refers to fsm_mconn_sleep.o(i.mconn_onStart) for mconn_onStart
    fsm_mconn_sleep.o(.constdata) refers to fsm_mconn_sleep.o(i.mconn_onWakeup) for mconn_onWakeup
    fsm_mconn_sleep.o(.constdata) refers to fsm_mconn_sleep.o(i.mconn_onRxAA) for mconn_onRxAA
    fsm_mconn_sleep.o(.constdata) refers to fsm_mconn_sleep.o(i.mconn_onRxPDU) for mconn_onRxPDU
    fsm_mconn_sleep.o(.constdata) refers to fsm_mconn_sleep.o(i.mconn_onTxStarted) for mconn_onTxStarted
    fsm_mconn_sleep.o(.constdata) refers to fsm_mconn_sleep.o(i.mconn_onSleep) for mconn_onSleep
    master_dispatch.o(i.cli_write_req) refers to data_queue.o(i.get_node_free) for get_node_free
    master_dispatch.o(i.cli_write_req) refers to master_dispatch.o(i.m_att_WriteReq) for m_att_WriteReq
    master_dispatch.o(i.mOpCheck_Start) refers to master_dispatch.o(.constdata) for .constdata
    master_dispatch.o(i.mOpCheck_Start) refers to master_dispatch.o(.data) for .data
    master_dispatch.o(i.m_GenerateTxQueue) refers to memcpya.o(.text) for __aeabi_memcpy
    master_dispatch.o(i.m_GenerateTxQueue) refers to data_queue.o(i.queue_push) for queue_push
    master_dispatch.o(i.m_GenerateTxQueue) refers to master_dispatch.o(.bss) for .bss
    master_dispatch.o(i.m_GenerateTxQueue) refers to fsm_mconn_sleep.o(.data) for queue_m
    master_dispatch.o(i.m_RdByGroupTypeRsp) refers to master_dispatch.o(i.m_att_readGrpBypService) for m_att_readGrpBypService
    master_dispatch.o(i.m_RdByGroupTypeRsp) refers to master_dispatch.o(.data) for .data
    master_dispatch.o(i.m_RdByTypeChar) refers to master_dispatch.o(i.m_GenerateTxQueue) for m_GenerateTxQueue
    master_dispatch.o(i.m_RdByTypeRsp) refers to master_dispatch.o(i.show_character_hd_info) for show_character_hd_info
    master_dispatch.o(i.m_RdByTypeRsp) refers to master_dispatch.o(i.m_RdByTypeChar) for m_RdByTypeChar
    master_dispatch.o(i.m_RdByTypeRsp) refers to master_dispatch.o(.data) for .data
    master_dispatch.o(i.m_UpdateNESN) refers to master_dispatch.o(.data) for .data
    master_dispatch.o(i.m_UpdateSN) refers to master_dispatch.o(.data) for .data
    master_dispatch.o(i.m_attErrorRsp) refers to master_dispatch.o(i.m_RdByTypeChar) for m_RdByTypeChar
    master_dispatch.o(i.m_attErrorRsp) refers to master_dispatch.o(i.m_att_readReq) for m_att_readReq
    master_dispatch.o(i.m_attErrorRsp) refers to master_dispatch.o(.data) for .data
    master_dispatch.o(i.m_att_Confirmation) refers to master_dispatch.o(i.m_GenerateTxQueue) for m_GenerateTxQueue
    master_dispatch.o(i.m_att_WriteReq) refers to memcpya.o(.text) for __aeabi_memcpy
    master_dispatch.o(i.m_att_WriteReq) refers to master_dispatch.o(i.m_GenerateTxQueue) for m_GenerateTxQueue
    master_dispatch.o(i.m_att_WriteReq) refers to master_dispatch.o(.bss) for .bss
    master_dispatch.o(i.m_att_exMtuReq) refers to master_dispatch.o(i.m_GenerateTxQueue) for m_GenerateTxQueue
    master_dispatch.o(i.m_att_notFd) refers to master_dispatch.o(i.m_GenerateTxQueue) for m_GenerateTxQueue
    master_dispatch.o(i.m_att_readGrpBypService) refers to master_dispatch.o(i.m_GenerateTxQueue) for m_GenerateTxQueue
    master_dispatch.o(i.m_att_readReq) refers to master_dispatch.o(i.m_GenerateTxQueue) for m_GenerateTxQueue
    master_dispatch.o(i.m_att_readReq) refers to master_dispatch.o(.data) for .data
    master_dispatch.o(i.m_opcodeCheck) refers to data_queue.o(i.readQueue) for readQueue
    master_dispatch.o(i.m_opcodeCheck) refers to ll_control.o(i.txRsp) for txRsp
    master_dispatch.o(i.m_opcodeCheck) refers to fsm_mconn_sleep.o(.data) for queue_m
    master_dispatch.o(i.m_opcodeCheck) refers to master_dispatch.o(.bss) for .bss
    master_dispatch.o(i.m_opcodeCheck) refers to master_dispatch.o(.data) for .data
    master_dispatch.o(i.m_opcodeCheck_parser) refers to macrogiga_driver.o(i.radio_getHdr) for radio_getHdr
    master_dispatch.o(i.m_opcodeCheck_parser) refers to macrogiga_driver.o(i.radio_getPdu) for radio_getPdu
    master_dispatch.o(i.m_opcodeCheck_parser) refers to master_dispatch.o(i.m_UpdateNESN) for m_UpdateNESN
    master_dispatch.o(i.m_opcodeCheck_parser) refers to master_dispatch.o(i.m_UpdateSN) for m_UpdateSN
    master_dispatch.o(i.m_opcodeCheck_parser) refers to master_dispatch.o(i.m_att_notFd) for m_att_notFd
    master_dispatch.o(i.m_opcodeCheck_parser) refers to master_dispatch.o(i.m_RdByTypeRsp) for m_RdByTypeRsp
    master_dispatch.o(i.m_opcodeCheck_parser) refers to master_dispatch.o(i.m_RdByGroupTypeRsp) for m_RdByGroupTypeRsp
    master_dispatch.o(i.m_opcodeCheck_parser) refers to master_dispatch.o(i.m_att_readReq) for m_att_readReq
    master_dispatch.o(i.m_opcodeCheck_parser) refers to master_dispatch.o(i.m_att_Confirmation) for m_att_Confirmation
    master_dispatch.o(i.m_opcodeCheck_parser) refers to master_dispatch.o(i.m_attErrorRsp) for m_attErrorRsp
    master_dispatch.o(i.m_opcodeCheck_parser) refers to master_dispatch.o(.bss) for .bss
    master_dispatch.o(i.m_opcodeCheck_parser) refers to master_dispatch.o(.data) for .data
    master_dispatch.o(.constdata) refers to master_dispatch.o(i.m_opcodeCheck) for m_opcodeCheck
    entry.o(.ARM.Collect$$$$00000000) refers (Special) to entry10a.o(.ARM.Collect$$$$0000000D) for __rt_final_cpp
    entry.o(.ARM.Collect$$$$00000000) refers (Special) to entry11a.o(.ARM.Collect$$$$0000000F) for __rt_final_exit
    entry.o(.ARM.Collect$$$$00000000) refers (Special) to entry7b.o(.ARM.Collect$$$$00000008) for _main_clock
    entry.o(.ARM.Collect$$$$00000000) refers (Special) to entry8b.o(.ARM.Collect$$$$0000000A) for _main_cpp_init
    entry.o(.ARM.Collect$$$$00000000) refers (Special) to entry9a.o(.ARM.Collect$$$$0000000B) for _main_init
    entry.o(.ARM.Collect$$$$00000000) refers (Special) to entry5.o(.ARM.Collect$$$$00000004) for _main_scatterload
    entry.o(.ARM.Collect$$$$00000000) refers (Special) to entry2.o(.ARM.Collect$$$$00000001) for _main_stk
    printfb.o(i.__0fprintf$bare) refers to printfb.o(i._printf_core) for _printf_core
    printfb.o(i.__0fprintf$bare) refers to at32_board.o(i.fputc) for fputc
    printfb.o(i.__0printf$bare) refers to printfb.o(i._printf_core) for _printf_core
    printfb.o(i.__0printf$bare) refers to at32_board.o(i.fputc) for fputc
    printfb.o(i.__0printf$bare) refers to stdout.o(.data) for __stdout
    printfb.o(i.__0snprintf$bare) refers to printfb.o(i._printf_core) for _printf_core
    printfb.o(i.__0snprintf$bare) refers to printfb.o(i._snputc) for _snputc
    printfb.o(i.__0sprintf$bare) refers to printfb.o(i._printf_core) for _printf_core
    printfb.o(i.__0sprintf$bare) refers to printfb.o(i._sputc) for _sputc
    printfb.o(i.__0vfprintf$bare) refers to printfb.o(i._printf_core) for _printf_core
    printfb.o(i.__0vfprintf$bare) refers to at32_board.o(i.fputc) for fputc
    printfb.o(i.__0vprintf$bare) refers to printfb.o(i._printf_core) for _printf_core
    printfb.o(i.__0vprintf$bare) refers to at32_board.o(i.fputc) for fputc
    printfb.o(i.__0vprintf$bare) refers to stdout.o(.data) for __stdout
    printfb.o(i.__0vsnprintf$bare) refers to printfb.o(i._printf_core) for _printf_core
    printfb.o(i.__0vsnprintf$bare) refers to printfb.o(i._snputc) for _snputc
    printfb.o(i.__0vsprintf$bare) refers to printfb.o(i._printf_core) for _printf_core
    printfb.o(i.__0vsprintf$bare) refers to printfb.o(i._sputc) for _sputc
    printf0.o(i.__0fprintf$0) refers to printf0.o(i._printf_core) for _printf_core
    printf0.o(i.__0fprintf$0) refers to at32_board.o(i.fputc) for fputc
    printf0.o(i.__0printf$0) refers to printf0.o(i._printf_core) for _printf_core
    printf0.o(i.__0printf$0) refers to at32_board.o(i.fputc) for fputc
    printf0.o(i.__0printf$0) refers to stdout.o(.data) for __stdout
    printf0.o(i.__0snprintf$0) refers to printf0.o(i._printf_core) for _printf_core
    printf0.o(i.__0snprintf$0) refers to printf0.o(i._snputc) for _snputc
    printf0.o(i.__0sprintf$0) refers to printf0.o(i._printf_core) for _printf_core
    printf0.o(i.__0sprintf$0) refers to printf0.o(i._sputc) for _sputc
    printf0.o(i.__0vfprintf$0) refers to printf0.o(i._printf_core) for _printf_core
    printf0.o(i.__0vfprintf$0) refers to at32_board.o(i.fputc) for fputc
    printf0.o(i.__0vprintf$0) refers to printf0.o(i._printf_core) for _printf_core
    printf0.o(i.__0vprintf$0) refers to at32_board.o(i.fputc) for fputc
    printf0.o(i.__0vprintf$0) refers to stdout.o(.data) for __stdout
    printf0.o(i.__0vsnprintf$0) refers to printf0.o(i._printf_core) for _printf_core
    printf0.o(i.__0vsnprintf$0) refers to printf0.o(i._snputc) for _snputc
    printf0.o(i.__0vsprintf$0) refers to printf0.o(i._printf_core) for _printf_core
    printf0.o(i.__0vsprintf$0) refers to printf0.o(i._sputc) for _sputc
    printf1.o(i.__0fprintf$1) refers to printf1.o(i._printf_core) for _printf_core
    printf1.o(i.__0fprintf$1) refers to at32_board.o(i.fputc) for fputc
    printf1.o(i.__0printf$1) refers to printf1.o(i._printf_core) for _printf_core
    printf1.o(i.__0printf$1) refers to at32_board.o(i.fputc) for fputc
    printf1.o(i.__0printf$1) refers to stdout.o(.data) for __stdout
    printf1.o(i.__0snprintf$1) refers to printf1.o(i._printf_core) for _printf_core
    printf1.o(i.__0snprintf$1) refers to printf1.o(i._snputc) for _snputc
    printf1.o(i.__0sprintf$1) refers to printf1.o(i._printf_core) for _printf_core
    printf1.o(i.__0sprintf$1) refers to printf1.o(i._sputc) for _sputc
    printf1.o(i.__0vfprintf$1) refers to printf1.o(i._printf_core) for _printf_core
    printf1.o(i.__0vfprintf$1) refers to at32_board.o(i.fputc) for fputc
    printf1.o(i.__0vprintf$1) refers to printf1.o(i._printf_core) for _printf_core
    printf1.o(i.__0vprintf$1) refers to at32_board.o(i.fputc) for fputc
    printf1.o(i.__0vprintf$1) refers to stdout.o(.data) for __stdout
    printf1.o(i.__0vsnprintf$1) refers to printf1.o(i._printf_core) for _printf_core
    printf1.o(i.__0vsnprintf$1) refers to printf1.o(i._snputc) for _snputc
    printf1.o(i.__0vsprintf$1) refers to printf1.o(i._printf_core) for _printf_core
    printf1.o(i.__0vsprintf$1) refers to printf1.o(i._sputc) for _sputc
    printf1.o(i._printf_core) refers to uidiv.o(.text) for __aeabi_uidivmod
    printf2.o(i.__0fprintf$2) refers to printf2.o(i._printf_core) for _printf_core
    printf2.o(i.__0fprintf$2) refers to at32_board.o(i.fputc) for fputc
    printf2.o(i.__0printf$2) refers to printf2.o(i._printf_core) for _printf_core
    printf2.o(i.__0printf$2) refers to at32_board.o(i.fputc) for fputc
    printf2.o(i.__0printf$2) refers to stdout.o(.data) for __stdout
    printf2.o(i.__0snprintf$2) refers to printf2.o(i._printf_core) for _printf_core
    printf2.o(i.__0snprintf$2) refers to printf2.o(i._snputc) for _snputc
    printf2.o(i.__0sprintf$2) refers to printf2.o(i._printf_core) for _printf_core
    printf2.o(i.__0sprintf$2) refers to printf2.o(i._sputc) for _sputc
    printf2.o(i.__0vfprintf$2) refers to printf2.o(i._printf_core) for _printf_core
    printf2.o(i.__0vfprintf$2) refers to at32_board.o(i.fputc) for fputc
    printf2.o(i.__0vprintf$2) refers to printf2.o(i._printf_core) for _printf_core
    printf2.o(i.__0vprintf$2) refers to at32_board.o(i.fputc) for fputc
    printf2.o(i.__0vprintf$2) refers to stdout.o(.data) for __stdout
    printf2.o(i.__0vsnprintf$2) refers to printf2.o(i._printf_core) for _printf_core
    printf2.o(i.__0vsnprintf$2) refers to printf2.o(i._snputc) for _snputc
    printf2.o(i.__0vsprintf$2) refers to printf2.o(i._printf_core) for _printf_core
    printf2.o(i.__0vsprintf$2) refers to printf2.o(i._sputc) for _sputc
    printf3.o(i.__0fprintf$3) refers to printf3.o(i._printf_core) for _printf_core
    printf3.o(i.__0fprintf$3) refers to at32_board.o(i.fputc) for fputc
    printf3.o(i.__0printf$3) refers to printf3.o(i._printf_core) for _printf_core
    printf3.o(i.__0printf$3) refers to at32_board.o(i.fputc) for fputc
    printf3.o(i.__0printf$3) refers to stdout.o(.data) for __stdout
    printf3.o(i.__0snprintf$3) refers to printf3.o(i._printf_core) for _printf_core
    printf3.o(i.__0snprintf$3) refers to printf3.o(i._snputc) for _snputc
    printf3.o(i.__0sprintf$3) refers to printf3.o(i._printf_core) for _printf_core
    printf3.o(i.__0sprintf$3) refers to printf3.o(i._sputc) for _sputc
    printf3.o(i.__0vfprintf$3) refers to printf3.o(i._printf_core) for _printf_core
    printf3.o(i.__0vfprintf$3) refers to at32_board.o(i.fputc) for fputc
    printf3.o(i.__0vprintf$3) refers to printf3.o(i._printf_core) for _printf_core
    printf3.o(i.__0vprintf$3) refers to at32_board.o(i.fputc) for fputc
    printf3.o(i.__0vprintf$3) refers to stdout.o(.data) for __stdout
    printf3.o(i.__0vsnprintf$3) refers to printf3.o(i._printf_core) for _printf_core
    printf3.o(i.__0vsnprintf$3) refers to printf3.o(i._snputc) for _snputc
    printf3.o(i.__0vsprintf$3) refers to printf3.o(i._printf_core) for _printf_core
    printf3.o(i.__0vsprintf$3) refers to printf3.o(i._sputc) for _sputc
    printf3.o(i._printf_core) refers to uidiv.o(.text) for __aeabi_uidivmod
    printf4.o(i.__0fprintf$4) refers to printf4.o(i._printf_core) for _printf_core
    printf4.o(i.__0fprintf$4) refers to at32_board.o(i.fputc) for fputc
    printf4.o(i.__0printf$4) refers to printf4.o(i._printf_core) for _printf_core
    printf4.o(i.__0printf$4) refers to at32_board.o(i.fputc) for fputc
    printf4.o(i.__0printf$4) refers to stdout.o(.data) for __stdout
    printf4.o(i.__0snprintf$4) refers to printf4.o(i._printf_core) for _printf_core
    printf4.o(i.__0snprintf$4) refers to printf4.o(i._snputc) for _snputc
    printf4.o(i.__0sprintf$4) refers to printf4.o(i._printf_core) for _printf_core
    printf4.o(i.__0sprintf$4) refers to printf4.o(i._sputc) for _sputc
    printf4.o(i.__0vfprintf$4) refers to printf4.o(i._printf_core) for _printf_core
    printf4.o(i.__0vfprintf$4) refers to at32_board.o(i.fputc) for fputc
    printf4.o(i.__0vprintf$4) refers to printf4.o(i._printf_core) for _printf_core
    printf4.o(i.__0vprintf$4) refers to at32_board.o(i.fputc) for fputc
    printf4.o(i.__0vprintf$4) refers to stdout.o(.data) for __stdout
    printf4.o(i.__0vsnprintf$4) refers to printf4.o(i._printf_core) for _printf_core
    printf4.o(i.__0vsnprintf$4) refers to printf4.o(i._snputc) for _snputc
    printf4.o(i.__0vsprintf$4) refers to printf4.o(i._printf_core) for _printf_core
    printf4.o(i.__0vsprintf$4) refers to printf4.o(i._sputc) for _sputc
    printf4.o(i._printf_core) refers to uldiv.o(.text) for __aeabi_uldivmod
    printf5.o(i.__0fprintf$5) refers to printf5.o(i._printf_core) for _printf_core
    printf5.o(i.__0fprintf$5) refers to at32_board.o(i.fputc) for fputc
    printf5.o(i.__0printf$5) refers to printf5.o(i._printf_core) for _printf_core
    printf5.o(i.__0printf$5) refers to at32_board.o(i.fputc) for fputc
    printf5.o(i.__0printf$5) refers to stdout.o(.data) for __stdout
    printf5.o(i.__0snprintf$5) refers to printf5.o(i._printf_core) for _printf_core
    printf5.o(i.__0snprintf$5) refers to printf5.o(i._snputc) for _snputc
    printf5.o(i.__0sprintf$5) refers to printf5.o(i._printf_core) for _printf_core
    printf5.o(i.__0sprintf$5) refers to printf5.o(i._sputc) for _sputc
    printf5.o(i.__0vfprintf$5) refers to printf5.o(i._printf_core) for _printf_core
    printf5.o(i.__0vfprintf$5) refers to at32_board.o(i.fputc) for fputc
    printf5.o(i.__0vprintf$5) refers to printf5.o(i._printf_core) for _printf_core
    printf5.o(i.__0vprintf$5) refers to at32_board.o(i.fputc) for fputc
    printf5.o(i.__0vprintf$5) refers to stdout.o(.data) for __stdout
    printf5.o(i.__0vsnprintf$5) refers to printf5.o(i._printf_core) for _printf_core
    printf5.o(i.__0vsnprintf$5) refers to printf5.o(i._snputc) for _snputc
    printf5.o(i.__0vsprintf$5) refers to printf5.o(i._printf_core) for _printf_core
    printf5.o(i.__0vsprintf$5) refers to printf5.o(i._sputc) for _sputc
    printf5.o(i._printf_core) refers to uldiv.o(.text) for __aeabi_uldivmod
    printf6.o(i.__0fprintf$6) refers to printf6.o(i._printf_core) for _printf_core
    printf6.o(i.__0fprintf$6) refers to at32_board.o(i.fputc) for fputc
    printf6.o(i.__0printf$6) refers to printf6.o(i._printf_core) for _printf_core
    printf6.o(i.__0printf$6) refers to at32_board.o(i.fputc) for fputc
    printf6.o(i.__0printf$6) refers to stdout.o(.data) for __stdout
    printf6.o(i.__0snprintf$6) refers to printf6.o(i._printf_core) for _printf_core
    printf6.o(i.__0snprintf$6) refers to printf6.o(i._snputc) for _snputc
    printf6.o(i.__0sprintf$6) refers to printf6.o(i._printf_core) for _printf_core
    printf6.o(i.__0sprintf$6) refers to printf6.o(i._sputc) for _sputc
    printf6.o(i.__0vfprintf$6) refers to printf6.o(i._printf_core) for _printf_core
    printf6.o(i.__0vfprintf$6) refers to at32_board.o(i.fputc) for fputc
    printf6.o(i.__0vprintf$6) refers to printf6.o(i._printf_core) for _printf_core
    printf6.o(i.__0vprintf$6) refers to at32_board.o(i.fputc) for fputc
    printf6.o(i.__0vprintf$6) refers to stdout.o(.data) for __stdout
    printf6.o(i.__0vsnprintf$6) refers to printf6.o(i._printf_core) for _printf_core
    printf6.o(i.__0vsnprintf$6) refers to printf6.o(i._snputc) for _snputc
    printf6.o(i.__0vsprintf$6) refers to printf6.o(i._printf_core) for _printf_core
    printf6.o(i.__0vsprintf$6) refers to printf6.o(i._sputc) for _sputc
    printf6.o(i._printf_core) refers to printf6.o(i._printf_pre_padding) for _printf_pre_padding
    printf6.o(i._printf_core) refers to uidiv.o(.text) for __aeabi_uidivmod
    printf6.o(i._printf_core) refers to printf6.o(i._printf_post_padding) for _printf_post_padding
    printf7.o(i.__0fprintf$7) refers to printf7.o(i._printf_core) for _printf_core
    printf7.o(i.__0fprintf$7) refers to at32_board.o(i.fputc) for fputc
    printf7.o(i.__0printf$7) refers to printf7.o(i._printf_core) for _printf_core
    printf7.o(i.__0printf$7) refers to at32_board.o(i.fputc) for fputc
    printf7.o(i.__0printf$7) refers to stdout.o(.data) for __stdout
    printf7.o(i.__0snprintf$7) refers to printf7.o(i._printf_core) for _printf_core
    printf7.o(i.__0snprintf$7) refers to printf7.o(i._snputc) for _snputc
    printf7.o(i.__0sprintf$7) refers to printf7.o(i._printf_core) for _printf_core
    printf7.o(i.__0sprintf$7) refers to printf7.o(i._sputc) for _sputc
    printf7.o(i.__0vfprintf$7) refers to printf7.o(i._printf_core) for _printf_core
    printf7.o(i.__0vfprintf$7) refers to at32_board.o(i.fputc) for fputc
    printf7.o(i.__0vprintf$7) refers to printf7.o(i._printf_core) for _printf_core
    printf7.o(i.__0vprintf$7) refers to at32_board.o(i.fputc) for fputc
    printf7.o(i.__0vprintf$7) refers to stdout.o(.data) for __stdout
    printf7.o(i.__0vsnprintf$7) refers to printf7.o(i._printf_core) for _printf_core
    printf7.o(i.__0vsnprintf$7) refers to printf7.o(i._snputc) for _snputc
    printf7.o(i.__0vsprintf$7) refers to printf7.o(i._printf_core) for _printf_core
    printf7.o(i.__0vsprintf$7) refers to printf7.o(i._sputc) for _sputc
    printf7.o(i._printf_core) refers to printf7.o(i._printf_pre_padding) for _printf_pre_padding
    printf7.o(i._printf_core) refers to uldiv.o(.text) for __aeabi_uldivmod
    printf7.o(i._printf_core) refers to printf7.o(i._printf_post_padding) for _printf_post_padding
    printf8.o(i.__0fprintf$8) refers to printf8.o(i._printf_core) for _printf_core
    printf8.o(i.__0fprintf$8) refers to at32_board.o(i.fputc) for fputc
    printf8.o(i.__0printf$8) refers to printf8.o(i._printf_core) for _printf_core
    printf8.o(i.__0printf$8) refers to at32_board.o(i.fputc) for fputc
    printf8.o(i.__0printf$8) refers to stdout.o(.data) for __stdout
    printf8.o(i.__0snprintf$8) refers to printf8.o(i._printf_core) for _printf_core
    printf8.o(i.__0snprintf$8) refers to printf8.o(i._snputc) for _snputc
    printf8.o(i.__0sprintf$8) refers to printf8.o(i._printf_core) for _printf_core
    printf8.o(i.__0sprintf$8) refers to printf8.o(i._sputc) for _sputc
    printf8.o(i.__0vfprintf$8) refers to printf8.o(i._printf_core) for _printf_core
    printf8.o(i.__0vfprintf$8) refers to at32_board.o(i.fputc) for fputc
    printf8.o(i.__0vprintf$8) refers to printf8.o(i._printf_core) for _printf_core
    printf8.o(i.__0vprintf$8) refers to at32_board.o(i.fputc) for fputc
    printf8.o(i.__0vprintf$8) refers to stdout.o(.data) for __stdout
    printf8.o(i.__0vsnprintf$8) refers to printf8.o(i._printf_core) for _printf_core
    printf8.o(i.__0vsnprintf$8) refers to printf8.o(i._snputc) for _snputc
    printf8.o(i.__0vsprintf$8) refers to printf8.o(i._printf_core) for _printf_core
    printf8.o(i.__0vsprintf$8) refers to printf8.o(i._sputc) for _sputc
    printf8.o(i._printf_core) refers to printf8.o(i._printf_pre_padding) for _printf_pre_padding
    printf8.o(i._printf_core) refers to uldiv.o(.text) for __aeabi_uldivmod
    printf8.o(i._printf_core) refers to printf8.o(i._printf_post_padding) for _printf_post_padding
    printfa.o(i.__0fprintf) refers (Special) to iusefp.o(.text) for __I$use$fp
    printfa.o(i.__0fprintf) refers to printfa.o(i._printf_core) for _printf_core
    printfa.o(i.__0fprintf) refers to at32_board.o(i.fputc) for fputc
    printfa.o(i.__0printf) refers (Special) to iusefp.o(.text) for __I$use$fp
    printfa.o(i.__0printf) refers to printfa.o(i._printf_core) for _printf_core
    printfa.o(i.__0printf) refers to at32_board.o(i.fputc) for fputc
    printfa.o(i.__0printf) refers to stdout.o(.data) for __stdout
    printfa.o(i.__0snprintf) refers (Special) to iusefp.o(.text) for __I$use$fp
    printfa.o(i.__0snprintf) refers to printfa.o(i._printf_core) for _printf_core
    printfa.o(i.__0snprintf) refers to printfa.o(i._snputc) for _snputc
    printfa.o(i.__0sprintf) refers (Special) to iusefp.o(.text) for __I$use$fp
    printfa.o(i.__0sprintf) refers to printfa.o(i._printf_core) for _printf_core
    printfa.o(i.__0sprintf) refers to printfa.o(i._sputc) for _sputc
    printfa.o(i.__0vfprintf) refers (Special) to iusefp.o(.text) for __I$use$fp
    printfa.o(i.__0vfprintf) refers to printfa.o(i._printf_core) for _printf_core
    printfa.o(i.__0vfprintf) refers to at32_board.o(i.fputc) for fputc
    printfa.o(i.__0vprintf) refers (Special) to iusefp.o(.text) for __I$use$fp
    printfa.o(i.__0vprintf) refers to printfa.o(i._printf_core) for _printf_core
    printfa.o(i.__0vprintf) refers to at32_board.o(i.fputc) for fputc
    printfa.o(i.__0vprintf) refers to stdout.o(.data) for __stdout
    printfa.o(i.__0vsnprintf) refers (Special) to iusefp.o(.text) for __I$use$fp
    printfa.o(i.__0vsnprintf) refers to printfa.o(i._printf_core) for _printf_core
    printfa.o(i.__0vsnprintf) refers to printfa.o(i._snputc) for _snputc
    printfa.o(i.__0vsprintf) refers (Special) to iusefp.o(.text) for __I$use$fp
    printfa.o(i.__0vsprintf) refers to printfa.o(i._printf_core) for _printf_core
    printfa.o(i.__0vsprintf) refers to printfa.o(i._sputc) for _sputc
    printfa.o(i._fp_digits) refers (Special) to iusefp.o(.text) for __I$use$fp
    printfa.o(i._fp_digits) refers to dmul.o(.text) for __aeabi_dmul
    printfa.o(i._fp_digits) refers to ddiv.o(.text) for __aeabi_ddiv
    printfa.o(i._fp_digits) refers to cdrcmple.o(.text) for __aeabi_cdrcmple
    printfa.o(i._fp_digits) refers to dadd.o(.text) for __aeabi_dadd
    printfa.o(i._fp_digits) refers to dfixul.o(.text) for __aeabi_d2ulz
    printfa.o(i._fp_digits) refers to uldiv.o(.text) for __aeabi_uldivmod
    printfa.o(i._printf_core) refers (Special) to iusefp.o(.text) for __I$use$fp
    printfa.o(i._printf_core) refers to printfa.o(i._printf_pre_padding) for _printf_pre_padding
    printfa.o(i._printf_core) refers to uldiv.o(.text) for __aeabi_uldivmod
    printfa.o(i._printf_core) refers to printfa.o(i._printf_post_padding) for _printf_post_padding
    printfa.o(i._printf_core) refers to printfa.o(i._fp_digits) for _fp_digits
    printfa.o(i._printf_core) refers to uidiv.o(.text) for __aeabi_uidivmod
    printfa.o(i._printf_post_padding) refers (Special) to iusefp.o(.text) for __I$use$fp
    printfa.o(i._printf_pre_padding) refers (Special) to iusefp.o(.text) for __I$use$fp
    printfa.o(i._snputc) refers (Special) to iusefp.o(.text) for __I$use$fp
    printfa.o(i._sputc) refers (Special) to iusefp.o(.text) for __I$use$fp
    entry2.o(.ARM.Collect$$$$00000001) refers to entry2.o(.ARM.Collect$$$$00002712) for __lit__00000000
    entry2.o(.ARM.Collect$$$$00002712) refers to startup_at32f407vgt7.o(STACK) for __initial_sp
    entry2.o(__vectab_stack_and_reset_area) refers to startup_at32f407vgt7.o(STACK) for __initial_sp
    entry2.o(__vectab_stack_and_reset_area) refers to entry.o(.ARM.Collect$$$$00000000) for __main
    entry5.o(.ARM.Collect$$$$00000004) refers to init.o(.text) for __scatterload
    entry9a.o(.ARM.Collect$$$$0000000B) refers to main.o(i.main) for main
    entry9b.o(.ARM.Collect$$$$0000000C) refers to main.o(i.main) for main
    uldiv.o(.text) refers to llushr.o(.text) for __aeabi_llsr
    uldiv.o(.text) refers to llshl.o(.text) for __aeabi_llsl
    dadd.o(.text) refers to llshl.o(.text) for __aeabi_llsl
    dadd.o(.text) refers to llsshr.o(.text) for __aeabi_lasr
    dadd.o(.text) refers to depilogue.o(.text) for _double_epilogue
    dmul.o(.text) refers to depilogue.o(.text) for _double_epilogue
    ddiv.o(.text) refers to depilogue.o(.text) for _double_round
    dfixul.o(.text) refers to llushr.o(.text) for __aeabi_llsr
    dfixul.o(.text) refers to llshl.o(.text) for __aeabi_llsl
    init.o(.text) refers to entry5.o(.ARM.Collect$$$$00000004) for __main_after_scatterload
    depilogue.o(.text) refers to llshl.o(.text) for __aeabi_llsl
    depilogue.o(.text) refers to llushr.o(.text) for __aeabi_llsr


==============================================================================

Removing Unused input sections from the image.

    Removing main.o(.rev16_text), (4 bytes).
    Removing main.o(.revsh_text), (4 bytes).
    Removing main.o(.rrx_text), (6 bytes).
    Removing app.o(.rev16_text), (4 bytes).
    Removing app.o(.revsh_text), (4 bytes).
    Removing app.o(.rrx_text), (6 bytes).
    Removing bsp.o(.rev16_text), (4 bytes).
    Removing bsp.o(.revsh_text), (4 bytes).
    Removing bsp.o(.rrx_text), (6 bytes).
    Removing bsp.o(i.SysClk48to8), (2 bytes).
    Removing bsp.o(i.SysClk8to48), (2 bytes).
    Removing at32f4xx_it.o(.rev16_text), (4 bytes).
    Removing at32f4xx_it.o(.revsh_text), (4 bytes).
    Removing at32f4xx_it.o(.rrx_text), (6 bytes).
    Removing retarget.o(.rev16_text), (4 bytes).
    Removing retarget.o(.revsh_text), (4 bytes).
    Removing retarget.o(.rrx_text), (6 bytes).
    Removing retarget.o(i.moduleOutData), (60 bytes).
    Removing at32_board.o(.rev16_text), (4 bytes).
    Removing at32_board.o(.revsh_text), (4 bytes).
    Removing at32_board.o(.rrx_text), (6 bytes).
    Removing at32_board.o(i.AT32_BUTTON_Press), (100 bytes).
    Removing at32_board.o(i.AT32_BUTTON_State), (32 bytes).
    Removing at32_board.o(i.AT32_LEDn_Toggle), (52 bytes).
    Removing at32_board.o(i.AT32_USB_GPIO_init), (60 bytes).
    Removing at32_board.o(i.Delay_ms), (152 bytes).
    Removing at32_board.o(i.Delay_sec), (34 bytes).
    Removing at32_board.o(i.Delay_us), (96 bytes).
    Removing system_at32f4xx.o(.rev16_text), (4 bytes).
    Removing system_at32f4xx.o(.revsh_text), (4 bytes).
    Removing system_at32f4xx.o(.rrx_text), (6 bytes).
    Removing system_at32f4xx.o(i.SystemCoreClockUpdate), (192 bytes).
    Removing startup_at32f407vgt7.o(HEAP), (512 bytes).
    Removing at32f4xx_gpio.o(.rev16_text), (4 bytes).
    Removing at32f4xx_gpio.o(.revsh_text), (4 bytes).
    Removing at32f4xx_gpio.o(.rrx_text), (6 bytes).
    Removing at32f4xx_gpio.o(i.GPIO_AFIOReset), (20 bytes).
    Removing at32f4xx_gpio.o(i.GPIO_ETH_MediaInterfaceConfig), (12 bytes).
    Removing at32f4xx_gpio.o(i.GPIO_EventOutputCmd), (12 bytes).
    Removing at32f4xx_gpio.o(i.GPIO_EventOutputConfig), (32 bytes).
    Removing at32f4xx_gpio.o(i.GPIO_PinsEnhanceSlewRate), (20 bytes).
    Removing at32f4xx_gpio.o(i.GPIO_PinsHugeDriven), (20 bytes).
    Removing at32f4xx_gpio.o(i.GPIO_PinsLockConfig), (18 bytes).
    Removing at32f4xx_gpio.o(i.GPIO_ReadInputData), (8 bytes).
    Removing at32f4xx_gpio.o(i.GPIO_ReadOutputData), (8 bytes).
    Removing at32f4xx_gpio.o(i.GPIO_ReadOutputDataBit), (18 bytes).
    Removing at32f4xx_gpio.o(i.GPIO_Reset), (144 bytes).
    Removing at32f4xx_gpio.o(i.GPIO_Write), (4 bytes).
    Removing at32f4xx_gpio.o(i.GPIO_WriteBit), (10 bytes).
    Removing at32f4xx_exti.o(.rev16_text), (4 bytes).
    Removing at32f4xx_exti.o(.revsh_text), (4 bytes).
    Removing at32f4xx_exti.o(.rrx_text), (6 bytes).
    Removing at32f4xx_exti.o(i.EXTI_ClearFlag), (12 bytes).
    Removing at32f4xx_exti.o(i.EXTI_GenerateSWInt), (16 bytes).
    Removing at32f4xx_exti.o(i.EXTI_GetFlagStatus), (24 bytes).
    Removing at32f4xx_exti.o(i.EXTI_Reset), (36 bytes).
    Removing at32f4xx_exti.o(i.EXTI_StructInit), (16 bytes).
    Removing at32f4xx_iwdg.o(.rev16_text), (4 bytes).
    Removing at32f4xx_iwdg.o(.revsh_text), (4 bytes).
    Removing at32f4xx_iwdg.o(.rrx_text), (6 bytes).
    Removing at32f4xx_iwdg.o(i.IWDG_Enable), (16 bytes).
    Removing at32f4xx_iwdg.o(i.IWDG_GetFlagStatus), (24 bytes).
    Removing at32f4xx_rcc.o(.rev16_text), (4 bytes).
    Removing at32f4xx_rcc.o(.revsh_text), (4 bytes).
    Removing at32f4xx_rcc.o(.rrx_text), (6 bytes).
    Removing at32f4xx_rcc.o(i.RCC_ADCCLKConfig), (28 bytes).
    Removing at32f4xx_rcc.o(i.RCC_AHBCLKConfig), (24 bytes).
    Removing at32f4xx_rcc.o(i.RCC_AHBPeriphClockCmd), (32 bytes).
    Removing at32f4xx_rcc.o(i.RCC_AHBPeriphResetCmd), (32 bytes).
    Removing at32f4xx_rcc.o(i.RCC_APB1CLKConfig), (24 bytes).
    Removing at32f4xx_rcc.o(i.RCC_APB1PeriphResetCmd), (32 bytes).
    Removing at32f4xx_rcc.o(i.RCC_APB2CLKConfig), (24 bytes).
    Removing at32f4xx_rcc.o(i.RCC_APB2PeriphResetCmd), (32 bytes).
    Removing at32f4xx_rcc.o(i.RCC_BackupResetCmd), (12 bytes).
    Removing at32f4xx_rcc.o(i.RCC_CLKOUTConfig), (108 bytes).
    Removing at32f4xx_rcc.o(i.RCC_ClearFlag), (20 bytes).
    Removing at32f4xx_rcc.o(i.RCC_ClearINTPendingBit), (12 bytes).
    Removing at32f4xx_rcc.o(i.RCC_GetFlagStatus), (60 bytes).
    Removing at32f4xx_rcc.o(i.RCC_GetINTStatus), (24 bytes).
    Removing at32f4xx_rcc.o(i.RCC_GetSYSCLKSelction), (16 bytes).
    Removing at32f4xx_rcc.o(i.RCC_HSEClockFailureDetectorCmd), (12 bytes).
    Removing at32f4xx_rcc.o(i.RCC_HSEConfig), (76 bytes).
    Removing at32f4xx_rcc.o(i.RCC_HSEDivConfig), (28 bytes).
    Removing at32f4xx_rcc.o(i.RCC_HSEENDelay), (12 bytes).
    Removing at32f4xx_rcc.o(i.RCC_HSI2USB48M), (56 bytes).
    Removing at32f4xx_rcc.o(i.RCC_HSICmd), (12 bytes).
    Removing at32f4xx_rcc.o(i.RCC_INTConfig), (32 bytes).
    Removing at32f4xx_rcc.o(i.RCC_LSEConfig), (52 bytes).
    Removing at32f4xx_rcc.o(i.RCC_LSICmd), (12 bytes).
    Removing at32f4xx_rcc.o(i.RCC_MCO2TMR10), (36 bytes).
    Removing at32f4xx_rcc.o(i.RCC_PLLCmd), (12 bytes).
    Removing at32f4xx_rcc.o(i.RCC_PLLConfig), (36 bytes).
    Removing at32f4xx_rcc.o(i.RCC_RTCCLKCmd), (12 bytes).
    Removing at32f4xx_rcc.o(i.RCC_RTCCLKConfig), (16 bytes).
    Removing at32f4xx_rcc.o(i.RCC_Reset), (96 bytes).
    Removing at32f4xx_rcc.o(i.RCC_SYSCLKConfig), (24 bytes).
    Removing at32f4xx_rcc.o(i.RCC_SetHSICalibValue), (44 bytes).
    Removing at32f4xx_rcc.o(i.RCC_SetHSITweakValue), (24 bytes).
    Removing at32f4xx_rcc.o(i.RCC_StepModeCmd), (36 bytes).
    Removing at32f4xx_rcc.o(i.RCC_USBCLKConfig), (24 bytes).
    Removing at32f4xx_rcc.o(i.RCC_USBINTRemap), (36 bytes).
    Removing at32f4xx_rcc.o(i.RCC_WaitForHSEStable), (64 bytes).
    Removing at32f4xx_spi.o(.rev16_text), (4 bytes).
    Removing at32f4xx_spi.o(.revsh_text), (4 bytes).
    Removing at32f4xx_spi.o(.rrx_text), (6 bytes).
    Removing at32f4xx_spi.o(i.I2S_DefaultInit), (20 bytes).
    Removing at32f4xx_spi.o(i.I2S_Enable), (24 bytes).
    Removing at32f4xx_spi.o(i.I2S_Init), (256 bytes).
    Removing at32f4xx_spi.o(i.SPI_CRCEN), (24 bytes).
    Removing at32f4xx_spi.o(i.SPI_FrameSizeConfig), (18 bytes).
    Removing at32f4xx_spi.o(i.SPI_GetCRC), (16 bytes).
    Removing at32f4xx_spi.o(i.SPI_GetCRCPolynomial), (6 bytes).
    Removing at32f4xx_spi.o(i.SPI_HalfDuplexTransModeConfig), (28 bytes).
    Removing at32f4xx_spi.o(i.SPI_I2S_ClearFlag), (6 bytes).
    Removing at32f4xx_spi.o(i.SPI_I2S_ClearINTPendingBit), (20 bytes).
    Removing at32f4xx_spi.o(i.SPI_I2S_DMAEnable), (18 bytes).
    Removing at32f4xx_spi.o(i.SPI_I2S_GetITStatus), (52 bytes).
    Removing at32f4xx_spi.o(i.SPI_I2S_INTConfig), (32 bytes).
    Removing at32f4xx_spi.o(i.SPI_I2S_Reset), (116 bytes).
    Removing at32f4xx_spi.o(i.SPI_NSSHardwareOutputEnable), (24 bytes).
    Removing at32f4xx_spi.o(i.SPI_NSSInternalSoftwareConfig), (30 bytes).
    Removing at32f4xx_spi.o(i.SPI_TxCRC), (10 bytes).
    Removing misc.o(.rev16_text), (4 bytes).
    Removing misc.o(.revsh_text), (4 bytes).
    Removing misc.o(.rrx_text), (6 bytes).
    Removing misc.o(i.NVIC_PriorityGroupConfig), (20 bytes).
    Removing misc.o(i.NVIC_SetVectorTable), (20 bytes).
    Removing misc.o(i.NVIC_SystemLPConfig), (32 bytes).
    Removing at32f4xx_usart.o(.rev16_text), (4 bytes).
    Removing at32f4xx_usart.o(.revsh_text), (4 bytes).
    Removing at32f4xx_usart.o(.rrx_text), (6 bytes).
    Removing at32f4xx_usart.o(i.USART_ClearFlag), (18 bytes).
    Removing at32f4xx_usart.o(i.USART_ClearITPendingBit), (30 bytes).
    Removing at32f4xx_usart.o(i.USART_ClockInit), (34 bytes).
    Removing at32f4xx_usart.o(i.USART_ClockStructInit), (12 bytes).
    Removing at32f4xx_usart.o(i.USART_DMACmd), (18 bytes).
    Removing at32f4xx_usart.o(i.USART_HalfDuplexCmd), (24 bytes).
    Removing at32f4xx_usart.o(i.USART_IrDACmd), (24 bytes).
    Removing at32f4xx_usart.o(i.USART_IrDAConfig), (18 bytes).
    Removing at32f4xx_usart.o(i.USART_LINBreakDetectLengthConfig), (18 bytes).
    Removing at32f4xx_usart.o(i.USART_LINCmd), (24 bytes).
    Removing at32f4xx_usart.o(i.USART_OneBitMethodCmd), (24 bytes).
    Removing at32f4xx_usart.o(i.USART_OverSampling8Cmd), (22 bytes).
    Removing at32f4xx_usart.o(i.USART_ReceiverWakeUpCmd), (24 bytes).
    Removing at32f4xx_usart.o(i.USART_Reset), (244 bytes).
    Removing at32f4xx_usart.o(i.USART_SendBreak), (10 bytes).
    Removing at32f4xx_usart.o(i.USART_SetAddress), (18 bytes).
    Removing at32f4xx_usart.o(i.USART_SetGuardTime), (16 bytes).
    Removing at32f4xx_usart.o(i.USART_SetPrescaler), (16 bytes).
    Removing at32f4xx_usart.o(i.USART_SmartCardCmd), (24 bytes).
    Removing at32f4xx_usart.o(i.USART_SmartCardNACKCmd), (24 bytes).
    Removing at32f4xx_usart.o(i.USART_WakeUpConfig), (18 bytes).
    Removing att.o(i.GetFirmwareInfo), (44 bytes).
    Removing att.o(i.OTA_Proc), (4 bytes).
    Removing att.o(i.att_empPk), (2 bytes).
    Removing att.o(i.att_server_rdByGrTypeRspDeviceInfo), (140 bytes).
    Removing att.o(i.sconn_indicationdata), (76 bytes).
    Removing att.o(i.set_notifyhandle), (12 bytes).
    Removing hwtest.o(i.SetMcuCanSleepThreshold), (12 bytes).
    Removing hwtest.o(i.ble_run_interrupt_McuCanSleep), (36 bytes).
    Removing hwtest.o(i.ble_set_adv_rsp_data), (48 bytes).
    Removing hwtest.o(i.ble_set_interval), (12 bytes).
    Removing hwtest.o(i.ble_set_name), (56 bytes).
    Removing hwtest.o(i.ble_set_role), (48 bytes).
    Removing hwtest.o(i.update_scan_para), (16 bytes).
    Removing macrogiga_driver.o(i.DelayUs), (18 bytes).
    Removing macrogiga_driver.o(i.Write_Buf), (16 bytes).
    Removing macrogiga_driver.o(i.mg_ReadOTP), (94 bytes).
    Removing macrogiga_driver.o(i.radio_do_cal_reset), (12 bytes).
    Removing macrogiga_driver.o(i.radio_fixSPI), (54 bytes).
    Removing macrogiga_driver.o(i.radio_initBle_TO), (484 bytes).
    Removing macrogiga_driver.o(i.radio_initBle_recover), (348 bytes).
    Removing macrogiga_driver.o(i.radio_resume), (100 bytes).
    Removing macrogiga_driver.o(i.radio_setBleAddr), (96 bytes).
    Removing macrogiga_driver.o(i.radio_setCal_nonBlocking), (24 bytes).
    Removing macrogiga_driver.o(i.radio_setRxGain), (4 bytes).
    Removing macrogiga_driver.o(i.radio_setXtal), (54 bytes).
    Removing macrogiga_driver.o(i.radio_standby), (100 bytes).
    Removing data_queue.o(i.queue_deinit), (16 bytes).
    Removing data_queue.o(i.queue_front), (6 bytes).
    Removing data_queue.o(i.queue_size), (18 bytes).
    Removing data_queue.o(i.read_queue_error_code), (12 bytes).
    Removing fsm_adv_generic.o(i.SetFixAdvChannel), (12 bytes).
    Removing fsm_adv_generic.o(i.ble_set_adv_enableFlag), (44 bytes).
    Removing fsm_adv_generic.o(i.ble_set_wakeupdly), (12 bytes).
    Removing fsm_scan.o(i.GetScanCh), (12 bytes).
    Removing fsm_scan.o(i.ScanDataGet), (28 bytes).
    Removing fsm_scan.o(i.ble_master_setTargetDeviceAddr), (32 bytes).
    Removing fsm_scan.o(i.mconn_SetConnInterval), (44 bytes).
    Removing fsm_scan.o(i.scan_DoCal_reset), (12 bytes).
    Removing l2cap.o(i.SIG_ConnParaUpdateReq), (132 bytes).
    Removing l2cap.o(.data), (1 bytes).
    Removing ll_control.o(i.GetLTKInfo), (16 bytes).
    Removing ll_control.o(i.ble_disconnect), (20 bytes).
    Removing ll_control.o(i.connUpdateChm), (20 bytes).
    Removing ll_control.o(i.connUpdatePtr), (56 bytes).
    Removing ll_control.o(i.s_llConnParaReq), (72 bytes).
    Removing ll_control.o(i.s_llSmSecurityReq), (64 bytes).
    Removing ll_control.o(i.sconn_UpdateConnParaReq), (132 bytes).
    Removing ll_control.o(i.sconn_UpdateConnParaReqS), (176 bytes).
    Removing sm.o(i.SetLePinCode), (84 bytes).
    Removing fsm_sconn.o(i.GetMasterDeviceMac), (16 bytes).
    Removing fsm_sconn.o(i.GetRssiData), (16 bytes).
    Removing fsm_sconn.o(i.ble_set_rxwindow), (12 bytes).
    Removing fsm_sconn.o(i.connPaInstant), (16 bytes).
    Removing fsm_sconn.o(i.sconn_GetConnInterval), (12 bytes).
    Removing fsm_sconn.o(i.sconn_getConnEvent), (12 bytes).
    Removing fsm_mconn_sleep.o(i.bb_UpdateReq), (36 bytes).
    Removing fsm_mconn_sleep.o(i.m_connUpdateChm), (2 bytes).
    Removing fsm_mconn_sleep.o(i.mconn_ReSetLLSupvTimer), (4 bytes).
    Removing master_dispatch.o(i.cli_write_req), (58 bytes).
    Removing master_dispatch.o(i.m_att_WriteReq), (80 bytes).
    Removing master_dispatch.o(i.m_att_exMtuReq), (58 bytes).
    Removing master_dispatch.o(i.show_service_hd_info), (12 bytes).
    Removing dadd.o(.text), (334 bytes).
    Removing dmul.o(.text), (228 bytes).
    Removing ddiv.o(.text), (222 bytes).
    Removing dfixul.o(.text), (48 bytes).
    Removing cdrcmple.o(.text), (48 bytes).
    Removing depilogue.o(.text), (186 bytes).

220 unused section(s) (total 8955 bytes) removed from the image.

==============================================================================

Image Symbol Table

    Local Symbols

    Symbol Name                              Value     Ov Type        Size  Object(Section)

    ../clib/../cmprslib/zerorunl2.c          0x00000000   Number         0  __dczerorl2.o ABSOLUTE
    ../clib/microlib/division.c              0x00000000   Number         0  uldiv.o ABSOLUTE
    ../clib/microlib/division.c              0x00000000   Number         0  uidiv.o ABSOLUTE
    ../clib/microlib/init/entry.s            0x00000000   Number         0  entry5.o ABSOLUTE
    ../clib/microlib/init/entry.s            0x00000000   Number         0  entry10b.o ABSOLUTE
    ../clib/microlib/init/entry.s            0x00000000   Number         0  entry11a.o ABSOLUTE
    ../clib/microlib/init/entry.s            0x00000000   Number         0  entry11b.o ABSOLUTE
    ../clib/microlib/init/entry.s            0x00000000   Number         0  entry10a.o ABSOLUTE
    ../clib/microlib/init/entry.s            0x00000000   Number         0  entry.o ABSOLUTE
    ../clib/microlib/init/entry.s            0x00000000   Number         0  entry8a.o ABSOLUTE
    ../clib/microlib/init/entry.s            0x00000000   Number         0  entry8b.o ABSOLUTE
    ../clib/microlib/init/entry.s            0x00000000   Number         0  entry7b.o ABSOLUTE
    ../clib/microlib/init/entry.s            0x00000000   Number         0  entry9a.o ABSOLUTE
    ../clib/microlib/init/entry.s            0x00000000   Number         0  entry2.o ABSOLUTE
    ../clib/microlib/init/entry.s            0x00000000   Number         0  entry7a.o ABSOLUTE
    ../clib/microlib/init/entry.s            0x00000000   Number         0  entry9b.o ABSOLUTE
    ../clib/microlib/longlong.c              0x00000000   Number         0  llsshr.o ABSOLUTE
    ../clib/microlib/longlong.c              0x00000000   Number         0  llushr.o ABSOLUTE
    ../clib/microlib/longlong.c              0x00000000   Number         0  llshl.o ABSOLUTE
    ../clib/microlib/printf/printf.c         0x00000000   Number         0  printf7.o ABSOLUTE
    ../clib/microlib/printf/printf.c         0x00000000   Number         0  printf6.o ABSOLUTE
    ../clib/microlib/printf/printf.c         0x00000000   Number         0  printfb.o ABSOLUTE
    ../clib/microlib/printf/printf.c         0x00000000   Number         0  printf0.o ABSOLUTE
    ../clib/microlib/printf/printf.c         0x00000000   Number         0  printf1.o ABSOLUTE
    ../clib/microlib/printf/printf.c         0x00000000   Number         0  printf2.o ABSOLUTE
    ../clib/microlib/printf/printf.c         0x00000000   Number         0  printf3.o ABSOLUTE
    ../clib/microlib/printf/printf.c         0x00000000   Number         0  printf8.o ABSOLUTE
    ../clib/microlib/printf/printf.c         0x00000000   Number         0  printf4.o ABSOLUTE
    ../clib/microlib/printf/printf.c         0x00000000   Number         0  printf5.o ABSOLUTE
    ../clib/microlib/printf/printf.c         0x00000000   Number         0  printfa.o ABSOLUTE
    ../clib/microlib/printf/stubs.s          0x00000000   Number         0  stubs.o ABSOLUTE
    ../clib/microlib/stdio/streams.c         0x00000000   Number         0  stdout.o ABSOLUTE
    ../clib/microlib/string/memcmp.c         0x00000000   Number         0  memcmp.o ABSOLUTE
    ../clib/microlib/string/memcpy.c         0x00000000   Number         0  memcpyb.o ABSOLUTE
    ../clib/microlib/string/memcpy.c         0x00000000   Number         0  memcpya.o ABSOLUTE
    ../clib/microlib/string/memset.c         0x00000000   Number         0  memseta.o ABSOLUTE
    ../clib/microlib/stubs.s                 0x00000000   Number         0  iusefp.o ABSOLUTE
    ../fplib/microlib/fpadd.c                0x00000000   Number         0  dadd.o ABSOLUTE
    ../fplib/microlib/fpdiv.c                0x00000000   Number         0  ddiv.o ABSOLUTE
    ../fplib/microlib/fpepilogue.c           0x00000000   Number         0  depilogue.o ABSOLUTE
    ../fplib/microlib/fpfix.c                0x00000000   Number         0  dfixul.o ABSOLUTE
    ../fplib/microlib/fpmul.c                0x00000000   Number         0  dmul.o ABSOLUTE
    ..\..\..\..\..\Libraries\AT32F4xx_StdPeriph_Driver\src\at32f4xx_exti.c 0x00000000   Number         0  at32f4xx_exti.o ABSOLUTE
    ..\..\..\..\..\Libraries\AT32F4xx_StdPeriph_Driver\src\at32f4xx_gpio.c 0x00000000   Number         0  at32f4xx_gpio.o ABSOLUTE
    ..\..\..\..\..\Libraries\AT32F4xx_StdPeriph_Driver\src\at32f4xx_iwdg.c 0x00000000   Number         0  at32f4xx_iwdg.o ABSOLUTE
    ..\..\..\..\..\Libraries\AT32F4xx_StdPeriph_Driver\src\at32f4xx_rcc.c 0x00000000   Number         0  at32f4xx_rcc.o ABSOLUTE
    ..\..\..\..\..\Libraries\AT32F4xx_StdPeriph_Driver\src\at32f4xx_spi.c 0x00000000   Number         0  at32f4xx_spi.o ABSOLUTE
    ..\..\..\..\..\Libraries\AT32F4xx_StdPeriph_Driver\src\at32f4xx_usart.c 0x00000000   Number         0  at32f4xx_usart.o ABSOLUTE
    ..\..\..\..\..\Libraries\AT32F4xx_StdPeriph_Driver\src\misc.c 0x00000000   Number         0  misc.o ABSOLUTE
    ..\..\..\..\..\Libraries\CMSIS\CM4\DeviceSupport\startup\mdk\startup_at32f407vgt7.s 0x00000000   Number         0  startup_at32f407vgt7.o ABSOLUTE
    ..\..\..\..\AT32_Board\at32_board.c      0x00000000   Number         0  at32_board.o ABSOLUTE
    ..\BSP.c                                 0x00000000   Number         0  bsp.o ABSOLUTE
    ..\\..\\..\\..\\..\\Libraries\\AT32F4xx_StdPeriph_Driver\\src\\at32f4xx_exti.c 0x00000000   Number         0  at32f4xx_exti.o ABSOLUTE
    ..\\..\\..\\..\\..\\Libraries\\AT32F4xx_StdPeriph_Driver\\src\\at32f4xx_gpio.c 0x00000000   Number         0  at32f4xx_gpio.o ABSOLUTE
    ..\\..\\..\\..\\..\\Libraries\\AT32F4xx_StdPeriph_Driver\\src\\at32f4xx_iwdg.c 0x00000000   Number         0  at32f4xx_iwdg.o ABSOLUTE
    ..\\..\\..\\..\\..\\Libraries\\AT32F4xx_StdPeriph_Driver\\src\\at32f4xx_rcc.c 0x00000000   Number         0  at32f4xx_rcc.o ABSOLUTE
    ..\\..\\..\\..\\..\\Libraries\\AT32F4xx_StdPeriph_Driver\\src\\at32f4xx_spi.c 0x00000000   Number         0  at32f4xx_spi.o ABSOLUTE
    ..\\..\\..\\..\\..\\Libraries\\AT32F4xx_StdPeriph_Driver\\src\\at32f4xx_usart.c 0x00000000   Number         0  at32f4xx_usart.o ABSOLUTE
    ..\\..\\..\\..\\..\\Libraries\\AT32F4xx_StdPeriph_Driver\\src\\misc.c 0x00000000   Number         0  misc.o ABSOLUTE
    ..\\..\\..\\..\\AT32_Board\\at32_board.c 0x00000000   Number         0  at32_board.o ABSOLUTE
    ..\\BSP.c                                0x00000000   Number         0  bsp.o ABSOLUTE
    ..\\app.c                                0x00000000   Number         0  app.o ABSOLUTE
    ..\\at32f4xx_it.c                        0x00000000   Number         0  at32f4xx_it.o ABSOLUTE
    ..\\main.c                               0x00000000   Number         0  main.o ABSOLUTE
    ..\\retarget.c                           0x00000000   Number         0  retarget.o ABSOLUTE
    ..\\system_at32f4xx.c                    0x00000000   Number         0  system_at32f4xx.o ABSOLUTE
    ..\app.c                                 0x00000000   Number         0  app.o ABSOLUTE
    ..\at32f4xx_it.c                         0x00000000   Number         0  at32f4xx_it.o ABSOLUTE
    ..\main.c                                0x00000000   Number         0  main.o ABSOLUTE
    ..\retarget.c                            0x00000000   Number         0  retarget.o ABSOLUTE
    ..\system_at32f4xx.c                     0x00000000   Number         0  system_at32f4xx.o ABSOLUTE
    Src\Advertising\fsm_adv_generic.c        0x00000000   Number         0  fsm_adv_generic.o ABSOLUTE
    Src\Advertising\fsm_base.c               0x00000000   Number         0  fsm_base.o ABSOLUTE
    Src\Advertising\fsm_mconn_sleep.c        0x00000000   Number         0  fsm_mconn_sleep.o ABSOLUTE
    Src\Advertising\fsm_scan.c               0x00000000   Number         0  fsm_scan.o ABSOLUTE
    Src\Advertising\fsm_sconn.c              0x00000000   Number         0  fsm_sconn.o ABSOLUTE
    Src\att.c                                0x00000000   Number         0  att.o ABSOLUTE
    Src\data_queue.c                         0x00000000   Number         0  data_queue.o ABSOLUTE
    Src\hwtest.c                             0x00000000   Number         0  hwtest.o ABSOLUTE
    Src\l2cap.c                              0x00000000   Number         0  l2cap.o ABSOLUTE
    Src\ll_control.c                         0x00000000   Number         0  ll_control.o ABSOLUTE
    Src\macrogiga_driver.c                   0x00000000   Number         0  macrogiga_driver.o ABSOLUTE
    Src\master_dispatch.c                    0x00000000   Number         0  master_dispatch.o ABSOLUTE
    Src\slave_dispatch.c                     0x00000000   Number         0  slave_dispatch.o ABSOLUTE
    Src\sm.c                                 0x00000000   Number         0  sm.o ABSOLUTE
    cdrcmple.s                               0x00000000   Number         0  cdrcmple.o ABSOLUTE
    dc.s                                     0x00000000   Number         0  dc.o ABSOLUTE
    handlers.s                               0x00000000   Number         0  handlers.o ABSOLUTE
    init.s                                   0x00000000   Number         0  init.o ABSOLUTE
    RESET                                    0x08000000   Section      388  startup_at32f407vgt7.o(RESET)
    .ARM.Collect$$$$00000000                 0x08000184   Section        0  entry.o(.ARM.Collect$$$$00000000)
    .ARM.Collect$$$$00000001                 0x08000184   Section        4  entry2.o(.ARM.Collect$$$$00000001)
    .ARM.Collect$$$$00000004                 0x08000188   Section        4  entry5.o(.ARM.Collect$$$$00000004)
    .ARM.Collect$$$$00000008                 0x0800018c   Section        0  entry7b.o(.ARM.Collect$$$$00000008)
    .ARM.Collect$$$$0000000A                 0x0800018c   Section        0  entry8b.o(.ARM.Collect$$$$0000000A)
    .ARM.Collect$$$$0000000B                 0x0800018c   Section        8  entry9a.o(.ARM.Collect$$$$0000000B)
    .ARM.Collect$$$$0000000D                 0x08000194   Section        0  entry10a.o(.ARM.Collect$$$$0000000D)
    .ARM.Collect$$$$0000000F                 0x08000194   Section        0  entry11a.o(.ARM.Collect$$$$0000000F)
    .ARM.Collect$$$$00002712                 0x08000194   Section        4  entry2.o(.ARM.Collect$$$$00002712)
    __lit__00000000                          0x08000194   Data           4  entry2.o(.ARM.Collect$$$$00002712)
    .text                                    0x08000198   Section       36  startup_at32f407vgt7.o(.text)
    $v0                                      0x08000198   Number         0  startup_at32f407vgt7.o(.text)
    .text                                    0x080001bc   Section        0  memcpya.o(.text)
    .text                                    0x080001e0   Section        0  memseta.o(.text)
    .text                                    0x08000204   Section        0  memcmp.o(.text)
    .text                                    0x0800021e   Section        0  uldiv.o(.text)
    .text                                    0x08000280   Section       36  init.o(.text)
    .text                                    0x080002a4   Section        0  llshl.o(.text)
    .text                                    0x080002c2   Section        0  llushr.o(.text)
    .text                                    0x080002e2   Section        0  __dczerorl2.o(.text)
    i.AT32_BUTTON_Init                       0x08000338   Section        0  at32_board.o(i.AT32_BUTTON_Init)
    i.AT32_Board_Init                        0x08000378   Section        0  at32_board.o(i.AT32_Board_Init)
    i.AT32_LEDn_Init                         0x080003b0   Section        0  at32_board.o(i.AT32_LEDn_Init)
    i.AT32_LEDn_OFF                          0x080003f8   Section        0  at32_board.o(i.AT32_LEDn_OFF)
    i.AT32_LEDn_ON                           0x08000420   Section        0  at32_board.o(i.AT32_LEDn_ON)
    i.BSP_Init                               0x08000448   Section        0  bsp.o(i.BSP_Init)
    i.BusFault_Handler                       0x08000540   Section        0  at32f4xx_it.o(i.BusFault_Handler)
    i.CanSleep                               0x08000544   Section        0  hwtest.o(i.CanSleep)
    CanSleep                                 0x08000545   Thumb Code    36  hwtest.o(i.CanSleep)
    i.CheckComPortInData                     0x08000570   Section        0  retarget.o(i.CheckComPortInData)
    i.CheckMcuTimerForRcCal                  0x08000604   Section        0  fsm_adv_generic.o(i.CheckMcuTimerForRcCal)
    i.ConnUpdate                             0x08000630   Section        0  fsm_sconn.o(i.ConnUpdate)
    ConnUpdate                               0x08000631   Thumb Code    68  fsm_sconn.o(i.ConnUpdate)
    i.ConnectStausUpdate                     0x08000678   Section        0  app.o(i.ConnectStausUpdate)
    i.Convert2BigLittleEndian                0x080006f0   Section        0  sm.o(i.Convert2BigLittleEndian)
    i.DebugMon_Handler                       0x08000708   Section        0  at32f4xx_it.o(i.DebugMon_Handler)
    i.Delay_init                             0x0800070c   Section        0  at32_board.o(i.Delay_init)
    i.DoRcConvert_HF_LF_COEF                 0x08000758   Section        0  fsm_adv_generic.o(i.DoRcConvert_HF_LF_COEF)
    i.DoRcConvert_LF_AMPLE                   0x0800076c   Section        0  fsm_adv_generic.o(i.DoRcConvert_LF_AMPLE)
    i.EXTI15_10_IRQHandler                   0x08000794   Section        0  at32f4xx_it.o(i.EXTI15_10_IRQHandler)
    i.EXTI_ClearIntPendingBit                0x080007b0   Section        0  at32f4xx_exti.o(i.EXTI_ClearIntPendingBit)
    i.EXTI_GetIntStatus                      0x080007bc   Section        0  at32f4xx_exti.o(i.EXTI_GetIntStatus)
    i.EXTI_Init                              0x080007e4   Section        0  at32f4xx_exti.o(i.EXTI_Init)
    i.GPIO_EXTILineConfig                    0x08000878   Section        0  at32f4xx_gpio.o(i.GPIO_EXTILineConfig)
    i.GPIO_Init                              0x080008b8   Section        0  at32f4xx_gpio.o(i.GPIO_Init)
    i.GPIO_PinsRemapConfig                   0x080009d0   Section        0  at32f4xx_gpio.o(i.GPIO_PinsRemapConfig)
    i.GPIO_ReadInputDataBit                  0x08000f40   Section        0  at32f4xx_gpio.o(i.GPIO_ReadInputDataBit)
    i.GPIO_ResetBits                         0x08000f52   Section        0  at32f4xx_gpio.o(i.GPIO_ResetBits)
    i.GPIO_SetBits                           0x08000f56   Section        0  at32f4xx_gpio.o(i.GPIO_SetBits)
    i.GPIO_StructInit                        0x08000f5a   Section        0  at32f4xx_gpio.o(i.GPIO_StructInit)
    i.GenerateTxQueue                        0x08000f6c   Section        0  slave_dispatch.o(i.GenerateTxQueue)
    i.GetAdvCh                               0x08000fbc   Section        0  fsm_adv_generic.o(i.GetAdvCh)
    i.GetAdvEnable                           0x08000fc8   Section        0  fsm_adv_generic.o(i.GetAdvEnable)
    i.GetCharListDim                         0x08000fd4   Section        0  app.o(i.GetCharListDim)
    i.GetConnectedStatus                     0x08000fd8   Section        0  app.o(i.GetConnectedStatus)
    i.GetPrimaryServiceHandle                0x08000fe4   Section        0  app.o(i.GetPrimaryServiceHandle)
    i.GetSysTickCount                        0x08000ff0   Section        0  at32f4xx_it.o(i.GetSysTickCount)
    i.HardFault_Handler                      0x08000ffc   Section        0  at32f4xx_it.o(i.HardFault_Handler)
    i.IWDG_KeyRegWrite                       0x08001000   Section        0  at32f4xx_iwdg.o(i.IWDG_KeyRegWrite)
    i.IWDG_ReloadCounter                     0x0800100c   Section        0  at32f4xx_iwdg.o(i.IWDG_ReloadCounter)
    i.IWDG_SetPrescaler                      0x0800101c   Section        0  at32f4xx_iwdg.o(i.IWDG_SetPrescaler)
    i.IWDG_SetReload                         0x08001028   Section        0  at32f4xx_iwdg.o(i.IWDG_SetReload)
    i.IrqMcuGotoSleepAndWakeup               0x08001034   Section        0  bsp.o(i.IrqMcuGotoSleepAndWakeup)
    i.IsIrqEnabled                           0x08001038   Section        0  bsp.o(i.IsIrqEnabled)
    i.IsSwTimeOut                            0x08001054   Section        0  hwtest.o(i.IsSwTimeOut)
    i.LED_ONOFF                              0x08001078   Section        0  bsp.o(i.LED_ONOFF)
    i.McuGotoSleepAndWakeup                  0x0800108e   Section        0  bsp.o(i.McuGotoSleepAndWakeup)
    i.MemManage_Handler                      0x08001090   Section        0  at32f4xx_it.o(i.MemManage_Handler)
    i.NMI_Handler                            0x08001094   Section        0  at32f4xx_it.o(i.NMI_Handler)
    i.NVIC_Init                              0x08001098   Section        0  misc.o(i.NVIC_Init)
    i.PendSV_Handler                         0x08001108   Section        0  at32f4xx_it.o(i.PendSV_Handler)
    i.RCC_APB1PeriphClockCmd                 0x0800110c   Section        0  at32f4xx_rcc.o(i.RCC_APB1PeriphClockCmd)
    i.RCC_APB2PeriphClockCmd                 0x0800112c   Section        0  at32f4xx_rcc.o(i.RCC_APB2PeriphClockCmd)
    i.RCC_GetClocksFreq                      0x0800114c   Section        0  at32f4xx_rcc.o(i.RCC_GetClocksFreq)
    i.ReMConnect                             0x08001294   Section        0  fsm_mconn_sleep.o(i.ReMConnect)
    i.ReSConnect                             0x080012ec   Section        0  fsm_sconn.o(i.ReSConnect)
    i.SIG_CommandRej                         0x08001364   Section        0  l2cap.o(i.SIG_CommandRej)
    i.SPI_CS_Disable_                        0x080013b0   Section        0  bsp.o(i.SPI_CS_Disable_)
    i.SPI_CS_Enable_                         0x080013c4   Section        0  bsp.o(i.SPI_CS_Enable_)
    i.SPI_Config                             0x080013d8   Section        0  bsp.o(i.SPI_Config)
    i.SPI_DefaultInitParaConfig              0x08001484   Section        0  at32f4xx_spi.o(i.SPI_DefaultInitParaConfig)
    i.SPI_Enable                             0x0800149c   Section        0  at32f4xx_spi.o(i.SPI_Enable)
    i.SPI_I2S_GetFlagStatus                  0x080014b4   Section        0  at32f4xx_spi.o(i.SPI_I2S_GetFlagStatus)
    i.SPI_I2S_RxData                         0x080014c6   Section        0  at32f4xx_spi.o(i.SPI_I2S_RxData)
    i.SPI_I2S_TxData                         0x080014cc   Section        0  at32f4xx_spi.o(i.SPI_I2S_TxData)
    i.SPI_Init                               0x080014d0   Section        0  at32f4xx_spi.o(i.SPI_Init)
    i.SPI_ReadBuf                            0x0800152a   Section        0  bsp.o(i.SPI_ReadBuf)
    i.SPI_WriteBuf                           0x08001566   Section        0  bsp.o(i.SPI_WriteBuf)
    i.SPI_WriteRead                          0x080015a0   Section        0  bsp.o(i.SPI_WriteRead)
    i.SVC_Handler                            0x080015d8   Section        0  at32f4xx_it.o(i.SVC_Handler)
    i.SaveCurrentHdr                         0x080015dc   Section        0  slave_dispatch.o(i.SaveCurrentHdr)
    i.SaveInitAddr                           0x080015e8   Section        0  ll_control.o(i.SaveInitAddr)
    i.ScanDataSave                           0x080015f8   Section        0  fsm_scan.o(i.ScanDataSave)
    ScanDataSave                             0x080015f9   Thumb Code    24  fsm_scan.o(i.ScanDataSave)
    i.SetBleIntRunningMode                   0x08001618   Section        0  hwtest.o(i.SetBleIntRunningMode)
    i.SetMcuSleepFlag                        0x08001624   Section        0  hwtest.o(i.SetMcuSleepFlag)
    i.SetSwTimer                             0x08001634   Section        0  hwtest.o(i.SetSwTimer)
    i.SetSysClock                            0x0800164c   Section        0  system_at32f4xx.o(i.SetSysClock)
    SetSysClock                              0x0800164d   Thumb Code     8  system_at32f4xx.o(i.SetSysClock)
    i.SetSysClockTo48MHSI                    0x08001654   Section        0  system_at32f4xx.o(i.SetSysClockTo48MHSI)
    SetSysClockTo48MHSI                      0x08001655   Thumb Code   206  system_at32f4xx.o(i.SetSysClockTo48MHSI)
    i.StartBBTimerForRcCal                   0x0800172c   Section        0  fsm_adv_generic.o(i.StartBBTimerForRcCal)
    i.SysTick_CLKSourceConfig                0x08001744   Section        0  misc.o(i.SysTick_CLKSourceConfig)
    i.SysTick_Handler                        0x0800176c   Section        0  at32f4xx_it.o(i.SysTick_Handler)
    i.SystemInit                             0x08001784   Section        0  system_at32f4xx.o(i.SystemInit)
    i.Tx_len                                 0x08001808   Section        0  fsm_base.o(i.Tx_len)
    i.UART_Print_Init                        0x08001818   Section        0  at32_board.o(i.UART_Print_Init)
    i.USART2_IRQHandler                      0x080018b0   Section        0  retarget.o(i.USART2_IRQHandler)
    i.USART_Cmd                              0x0800194c   Section        0  at32f4xx_usart.o(i.USART_Cmd)
    i.USART_GetFlagStatus                    0x08001964   Section        0  at32f4xx_usart.o(i.USART_GetFlagStatus)
    i.USART_GetITStatus                      0x0800197e   Section        0  at32f4xx_usart.o(i.USART_GetITStatus)
    i.USART_INTConfig                        0x080019d2   Section        0  at32f4xx_usart.o(i.USART_INTConfig)
    i.USART_Init                             0x08001a1c   Section        0  at32f4xx_usart.o(i.USART_Init)
    i.USART_ReceiveData                      0x08001af4   Section        0  at32f4xx_usart.o(i.USART_ReceiveData)
    i.USART_SendData                         0x08001afe   Section        0  at32f4xx_usart.o(i.USART_SendData)
    i.USART_StructInit                       0x08001b06   Section        0  at32f4xx_usart.o(i.USART_StructInit)
    i.Uart_Init                              0x08001b20   Section        0  bsp.o(i.Uart_Init)
    i.UsageFault_Handler                     0x08001bc8   Section        0  at32f4xx_it.o(i.UsageFault_Handler)
    i.UsrProcCallback                        0x08001bcc   Section        0  retarget.o(i.UsrProcCallback)
    i.__0printf$8                            0x08001c30   Section        0  printf8.o(i.__0printf$8)
    i.__scatterload_copy                     0x08001c50   Section       14  handlers.o(i.__scatterload_copy)
    i.__scatterload_null                     0x08001c5e   Section        2  handlers.o(i.__scatterload_null)
    i.__scatterload_zeroinit                 0x08001c60   Section       14  handlers.o(i.__scatterload_zeroinit)
    i._printf_core                           0x08001c70   Section        0  printf8.o(i._printf_core)
    _printf_core                             0x08001c71   Thumb Code   996  printf8.o(i._printf_core)
    i._printf_post_padding                   0x08002080   Section        0  printf8.o(i._printf_post_padding)
    _printf_post_padding                     0x08002081   Thumb Code    36  printf8.o(i._printf_post_padding)
    i._printf_pre_padding                    0x080020a4   Section        0  printf8.o(i._printf_pre_padding)
    _printf_pre_padding                      0x080020a5   Thumb Code    46  printf8.o(i._printf_pre_padding)
    i.adv_generic_onRxAA                     0x080020d4   Section        0  fsm_adv_generic.o(i.adv_generic_onRxAA)
    adv_generic_onRxAA                       0x080020d5   Thumb Code    34  fsm_adv_generic.o(i.adv_generic_onRxAA)
    i.adv_generic_onRxPDU                    0x080020fc   Section        0  fsm_adv_generic.o(i.adv_generic_onRxPDU)
    adv_generic_onRxPDU                      0x080020fd   Thumb Code   130  fsm_adv_generic.o(i.adv_generic_onRxPDU)
    i.adv_generic_onSleep                    0x0800218c   Section        0  fsm_adv_generic.o(i.adv_generic_onSleep)
    adv_generic_onSleep                      0x0800218d   Thumb Code   288  fsm_adv_generic.o(i.adv_generic_onSleep)
    i.adv_generic_onStart                    0x080022c0   Section        0  fsm_adv_generic.o(i.adv_generic_onStart)
    adv_generic_onStart                      0x080022c1   Thumb Code    40  fsm_adv_generic.o(i.adv_generic_onStart)
    i.adv_generic_onTxStarted                0x080022ec   Section        0  fsm_adv_generic.o(i.adv_generic_onTxStarted)
    adv_generic_onTxStarted                  0x080022ed   Thumb Code    52  fsm_adv_generic.o(i.adv_generic_onTxStarted)
    i.adv_generic_onWakeup                   0x08002324   Section        0  fsm_adv_generic.o(i.adv_generic_onWakeup)
    adv_generic_onWakeup                     0x08002325   Thumb Code   120  fsm_adv_generic.o(i.adv_generic_onWakeup)
    i.aes_encr                               0x080023a0   Section        0  sm.o(i.aes_encr)
    aes_encr                                 0x080023a1   Thumb Code   912  sm.o(i.aes_encr)
    i.aes_encrypt_HW                         0x08002734   Section        0  app.o(i.aes_encrypt_HW)
    i.applyConnUpdate                        0x0800273c   Section        0  fsm_sconn.o(i.applyConnUpdate)
    applyConnUpdate                          0x0800273d   Thumb Code    62  fsm_sconn.o(i.applyConnUpdate)
    i.apply_connPara                         0x08002780   Section        0  fsm_sconn.o(i.apply_connPara)
    apply_connPara                           0x08002781   Thumb Code   126  fsm_sconn.o(i.apply_connPara)
    i.att_ErrorFd_eCode                      0x08002804   Section        0  att.o(i.att_ErrorFd_eCode)
    i.att_exMtuReq                           0x08002844   Section        0  att.o(i.att_exMtuReq)
    i.att_notFd                              0x08002870   Section        0  att.o(i.att_notFd)
    i.att_rsp                                0x08002876   Section        0  att.o(i.att_rsp)
    att_rsp                                  0x08002877   Thumb Code     4  att.o(i.att_rsp)
    i.att_server_findByType                  0x0800287a   Section        0  att.o(i.att_server_findByType)
    i.att_server_findIn                      0x08002900   Section        0  att.o(i.att_server_findIn)
    i.att_server_rd                          0x080029a0   Section        0  att.o(i.att_server_rd)
    i.att_server_rdByGrType                  0x08002a00   Section        0  app.o(i.att_server_rdByGrType)
    i.att_server_rdByGrTypeRspPrimaryService 0x08002a40   Section        0  att.o(i.att_server_rdByGrTypeRspPrimaryService)
    i.att_server_rdByType                    0x08002ab4   Section        0  att.o(i.att_server_rdByType)
    i.bb_DoRcCal                             0x08002d20   Section        0  fsm_adv_generic.o(i.bb_DoRcCal)
    i.bb_advCalTimerIrq                      0x08002d54   Section        0  fsm_adv_generic.o(i.bb_advCalTimerIrq)
    i.bb_advGenericSetup                     0x08002d58   Section        0  fsm_adv_generic.o(i.bb_advGenericSetup)
    i.bb_advGenericStart                     0x08002d84   Section        0  fsm_adv_generic.o(i.bb_advGenericStart)
    i.bb_getConnState                        0x08002d98   Section        0  fsm_base.o(i.bb_getConnState)
    i.bb_mconnStart                          0x08002dbc   Section        0  fsm_mconn_sleep.o(i.bb_mconnStart)
    i.bb_scanSetup                           0x08002e5c   Section        0  fsm_scan.o(i.bb_scanSetup)
    i.bb_scanStart                           0x08002e88   Section        0  fsm_scan.o(i.bb_scanStart)
    i.bb_sconnStart                          0x08002e9c   Section        0  fsm_sconn.o(i.bb_sconnStart)
    i.bb_setConnState                        0x08002f2c   Section        0  fsm_base.o(i.bb_setConnState)
    i.ble_nMsRoutine                         0x08002f38   Section        0  hwtest.o(i.ble_nMsRoutine)
    i.ble_run                                0x08002f68   Section        0  hwtest.o(i.ble_run)
    i.ble_run_interrupt_start                0x0800336c   Section        0  hwtest.o(i.ble_run_interrupt_start)
    i.ble_set_adv_data                       0x08003388   Section        0  hwtest.o(i.ble_set_adv_data)
    i.ble_set_adv_type                       0x080033b8   Section        0  hwtest.o(i.ble_set_adv_type)
    i.create_conn                            0x080033d0   Section        0  fsm_scan.o(i.create_conn)
    create_conn                              0x080033d1   Thumb Code    56  fsm_scan.o(i.create_conn)
    i.create_node                            0x0800340c   Section        0  data_queue.o(i.create_node)
    create_node                              0x0800340d   Thumb Code    80  data_queue.o(i.create_node)
    i.empty_pk                               0x08003464   Section        0  ll_control.o(i.empty_pk)
    i.expandKey                              0x08003474   Section        0  sm.o(i.expandKey)
    expandKey                                0x08003475   Thumb Code   214  sm.o(i.expandKey)
    i.fputc                                  0x08003554   Section        0  at32_board.o(i.fputc)
    i.galois_mul2                            0x08003578   Section        0  sm.o(i.galois_mul2)
    galois_mul2                              0x08003579   Thumb Code    18  sm.o(i.galois_mul2)
    i.gatt_user_send_notify_data_callback    0x0800358a   Section        0  app.o(i.gatt_user_send_notify_data_callback)
    i.getDeviceInfoData                      0x0800358c   Section        0  app.o(i.getDeviceInfoData)
    i.get_ble_version                        0x0800359c   Section        0  hwtest.o(i.get_ble_version)
    i.get_current_ch                         0x080035b0   Section        0  fsm_sconn.o(i.get_current_ch)
    i.get_node_free                          0x080035bc   Section        0  data_queue.o(i.get_node_free)
    i.is_node_empty                          0x080035c8   Section        0  data_queue.o(i.is_node_empty)
    i.mOpCheck_Start                         0x080035dc   Section        0  master_dispatch.o(i.mOpCheck_Start)
    i.m_GenerateTxQueue                      0x080035f4   Section        0  master_dispatch.o(i.m_GenerateTxQueue)
    i.m_RdByGroupTypeRsp                     0x08003628   Section        0  master_dispatch.o(i.m_RdByGroupTypeRsp)
    i.m_RdByTypeChar                         0x08003670   Section        0  master_dispatch.o(i.m_RdByTypeChar)
    i.m_RdByTypeRsp                          0x080036c4   Section        0  master_dispatch.o(i.m_RdByTypeRsp)
    i.m_UpdateNESN                           0x080036fc   Section        0  master_dispatch.o(i.m_UpdateNESN)
    i.m_UpdateSN                             0x0800370c   Section        0  master_dispatch.o(i.m_UpdateSN)
    i.m_attErrorRsp                          0x0800371c   Section        0  master_dispatch.o(i.m_attErrorRsp)
    i.m_att_Confirmation                     0x0800373c   Section        0  master_dispatch.o(i.m_att_Confirmation)
    i.m_att_notFd                            0x0800376e   Section        0  master_dispatch.o(i.m_att_notFd)
    m_att_notFd                              0x0800376f   Thumb Code    74  master_dispatch.o(i.m_att_notFd)
    i.m_att_readGrpBypService                0x080037b8   Section        0  master_dispatch.o(i.m_att_readGrpBypService)
    i.m_att_readReq                          0x0800380c   Section        0  master_dispatch.o(i.m_att_readReq)
    i.m_opcodeCheck                          0x08003860   Section        0  master_dispatch.o(i.m_opcodeCheck)
    m_opcodeCheck                            0x08003861   Thumb Code    74  master_dispatch.o(i.m_opcodeCheck)
    i.m_opcodeCheck_parser                   0x080038b8   Section        0  master_dispatch.o(i.m_opcodeCheck_parser)
    i.main                                   0x08003974   Section        0  main.o(i.main)
    i.mconn_onChannelSelection               0x08003a78   Section        0  fsm_mconn_sleep.o(i.mconn_onChannelSelection)
    mconn_onChannelSelection                 0x08003a79   Thumb Code    66  fsm_mconn_sleep.o(i.mconn_onChannelSelection)
    i.mconn_onRxAA                           0x08003ac4   Section        0  fsm_mconn_sleep.o(i.mconn_onRxAA)
    mconn_onRxAA                             0x08003ac5   Thumb Code    22  fsm_mconn_sleep.o(i.mconn_onRxAA)
    i.mconn_onRxPDU                          0x08003ae0   Section        0  fsm_mconn_sleep.o(i.mconn_onRxPDU)
    mconn_onRxPDU                            0x08003ae1   Thumb Code    28  fsm_mconn_sleep.o(i.mconn_onRxPDU)
    i.mconn_onSleep                          0x08003b00   Section        0  fsm_mconn_sleep.o(i.mconn_onSleep)
    mconn_onSleep                            0x08003b01   Thumb Code   214  fsm_mconn_sleep.o(i.mconn_onSleep)
    i.mconn_onStart                          0x08003bf4   Section        0  fsm_mconn_sleep.o(i.mconn_onStart)
    mconn_onStart                            0x08003bf5   Thumb Code    78  fsm_mconn_sleep.o(i.mconn_onStart)
    i.mconn_onTxStarted                      0x08003c50   Section        0  fsm_mconn_sleep.o(i.mconn_onTxStarted)
    mconn_onTxStarted                        0x08003c51   Thumb Code    46  fsm_mconn_sleep.o(i.mconn_onTxStarted)
    i.mconn_onWakeup                         0x08003c8c   Section        0  fsm_mconn_sleep.o(i.mconn_onWakeup)
    mconn_onWakeup                           0x08003c8d   Thumb Code    30  fsm_mconn_sleep.o(i.mconn_onWakeup)
    i.mg_activate                            0x08003cb0   Section        0  macrogiga_driver.o(i.mg_activate)
    i.mg_aes_encrypt                         0x08003cc0   Section        0  sm.o(i.mg_aes_encrypt)
    i.mg_readBuf                             0x08003ce8   Section        0  macrogiga_driver.o(i.mg_readBuf)
    i.mg_readReg                             0x08003cec   Section        0  macrogiga_driver.o(i.mg_readReg)
    i.mg_writeBuf                            0x08003cf2   Section        0  macrogiga_driver.o(i.mg_writeBuf)
    i.mg_writeReg                            0x08003cfa   Section        0  macrogiga_driver.o(i.mg_writeReg)
    i.queue_empty                            0x08003d0a   Section        0  data_queue.o(i.queue_empty)
    i.queue_init                             0x08003d1c   Section        0  data_queue.o(i.queue_init)
    i.queue_pop                              0x08003d30   Section        0  data_queue.o(i.queue_pop)
    i.queue_push                             0x08003d48   Section        0  data_queue.o(i.queue_push)
    i.radio_clearIRQ                         0x08003d68   Section        0  macrogiga_driver.o(i.radio_clearIRQ)
    i.radio_do_cal                           0x08003d70   Section        0  macrogiga_driver.o(i.radio_do_cal)
    i.radio_do_cal_check_result              0x08003e0a   Section        0  macrogiga_driver.o(i.radio_do_cal_check_result)
    i.radio_do_cal_start                     0x08003e2c   Section        0  macrogiga_driver.o(i.radio_do_cal_start)
    i.radio_do_cal_step_check                0x08003e54   Section        0  macrogiga_driver.o(i.radio_do_cal_step_check)
    i.radio_getClock                         0x08003ef8   Section        0  macrogiga_driver.o(i.radio_getClock)
    i.radio_getHClock                        0x08003f36   Section        0  macrogiga_driver.o(i.radio_getHClock)
    i.radio_getHdr                           0x08003f5c   Section        0  macrogiga_driver.o(i.radio_getHdr)
    i.radio_getPdu                           0x08003f94   Section        0  macrogiga_driver.o(i.radio_getPdu)
    i.radio_initBle                          0x0800402c   Section        0  macrogiga_driver.o(i.radio_initBle)
    i.radio_readIRQ                          0x080041dc   Section        0  macrogiga_driver.o(i.radio_readIRQ)
    i.radio_setAccessCode                    0x080041f0   Section        0  macrogiga_driver.o(i.radio_setAccessCode)
    i.radio_setAdvHeader                     0x08004216   Section        0  macrogiga_driver.o(i.radio_setAdvHeader)
    i.radio_setAdvPayload                    0x0800422e   Section        0  macrogiga_driver.o(i.radio_setAdvPayload)
    i.radio_setChannel                       0x08004238   Section        0  macrogiga_driver.o(i.radio_setChannel)
    i.radio_setCrcInit                       0x08004246   Section        0  macrogiga_driver.o(i.radio_setCrcInit)
    i.radio_setIrqMask                       0x08004266   Section        0  macrogiga_driver.o(i.radio_setIrqMask)
    i.radio_setMode                          0x0800427e   Section        0  macrogiga_driver.o(i.radio_setMode)
    i.radio_setPaGain                        0x080042b4   Section        0  macrogiga_driver.o(i.radio_setPaGain)
    i.radio_setScanAInitA                    0x080042cc   Section        0  macrogiga_driver.o(i.radio_setScanAInitA)
    i.radio_setStartTime                     0x080042fe   Section        0  macrogiga_driver.o(i.radio_setStartTime)
    i.radio_setTimeout                       0x0800431c   Section        0  macrogiga_driver.o(i.radio_setTimeout)
    i.radio_setTxPayload                     0x08004346   Section        0  macrogiga_driver.o(i.radio_setTxPayload)
    i.radio_setTxPduHeader                   0x08004350   Section        0  macrogiga_driver.o(i.radio_setTxPduHeader)
    i.radio_setWakeupTime                    0x0800436c   Section        0  macrogiga_driver.o(i.radio_setWakeupTime)
    i.radio_sleep                            0x08004390   Section        0  macrogiga_driver.o(i.radio_sleep)
    i.radio_wakeup                           0x080043b2   Section        0  macrogiga_driver.o(i.radio_wakeup)
    i.readQueue                              0x080043bc   Section        0  data_queue.o(i.readQueue)
    i.reset_sm_flags                         0x080043fc   Section        0  ll_control.o(i.reset_sm_flags)
    i.restoretxbuf                           0x0800440c   Section        0  ll_control.o(i.restoretxbuf)
    i.sOpCheck_Start                         0x08004430   Section        0  slave_dispatch.o(i.sOpCheck_Start)
    i.s_llChmReq                             0x08004448   Section        0  ll_control.o(i.s_llChmReq)
    i.s_llConnParaRsp                        0x0800444c   Section        0  ll_control.o(i.s_llConnParaRsp)
    i.s_llEncReq                             0x08004494   Section        0  ll_control.o(i.s_llEncReq)
    i.s_llFea                                0x08004588   Section        0  ll_control.o(i.s_llFea)
    i.s_llSmGetTKType                        0x080045c0   Section        0  sm.o(i.s_llSmGetTKType)
    i.s_llSmPair                             0x080045d8   Section        0  ll_control.o(i.s_llSmPair)
    i.s_llSmPairConfirm                      0x0800468c   Section        0  ll_control.o(i.s_llSmPairConfirm)
    i.s_llSmPairFailed                       0x08004748   Section        0  ll_control.o(i.s_llSmPairFailed)
    i.s_llSmPairRand                         0x08004794   Section        0  ll_control.o(i.s_llSmPairRand)
    i.s_llStartEncRsp                        0x0800486c   Section        0  ll_control.o(i.s_llStartEncRsp)
    i.s_llTer                                0x08004944   Section        0  ll_control.o(i.s_llTer)
    i.s_llTerminate                          0x08004970   Section        0  ll_control.o(i.s_llTerminate)
    i.s_llUnknownRsp                         0x080049a4   Section        0  ll_control.o(i.s_llUnknownRsp)
    i.s_llVersion                            0x080049d4   Section        0  ll_control.o(i.s_llVersion)
    i.s_opcodeCheck                          0x08004a0c   Section        0  slave_dispatch.o(i.s_opcodeCheck)
    s_opcodeCheck                            0x08004a0d   Thumb Code   102  slave_dispatch.o(i.s_opcodeCheck)
    i.s_opcodeCheckOld                       0x08004a78   Section        0  slave_dispatch.o(i.s_opcodeCheckOld)
    i.savetxbuf                              0x08004d5c   Section        0  ll_control.o(i.savetxbuf)
    i.scan_onRxAA                            0x08004d74   Section        0  fsm_scan.o(i.scan_onRxAA)
    scan_onRxAA                              0x08004d75   Thumb Code    54  fsm_scan.o(i.scan_onRxAA)
    i.scan_onRxPDU                           0x08004db0   Section        0  fsm_scan.o(i.scan_onRxPDU)
    scan_onRxPDU                             0x08004db1   Thumb Code   186  fsm_scan.o(i.scan_onRxPDU)
    i.scan_onSleep                           0x08004e74   Section        0  fsm_scan.o(i.scan_onSleep)
    scan_onSleep                             0x08004e75   Thumb Code    76  fsm_scan.o(i.scan_onSleep)
    i.scan_onStart                           0x08004ed0   Section        0  fsm_scan.o(i.scan_onStart)
    scan_onStart                             0x08004ed1   Thumb Code    36  fsm_scan.o(i.scan_onStart)
    i.scan_onTxStarted                       0x08004efc   Section        0  fsm_scan.o(i.scan_onTxStarted)
    scan_onTxStarted                         0x08004efd   Thumb Code     4  fsm_scan.o(i.scan_onTxStarted)
    i.scan_onWakeup                          0x08004f00   Section        0  fsm_scan.o(i.scan_onWakeup)
    scan_onWakeup                            0x08004f01   Thumb Code    48  fsm_scan.o(i.scan_onWakeup)
    i.sconnConUpdate                         0x08004f34   Section        0  fsm_sconn.o(i.sconnConUpdate)
    i.sconnUpChm                             0x08004f94   Section        0  fsm_sconn.o(i.sconnUpChm)
    i.sconn_ReSetLLSupvTimer                 0x08004fc0   Section        0  fsm_sconn.o(i.sconn_ReSetLLSupvTimer)
    i.sconn_notifydata                       0x08004fc4   Section        0  att.o(i.sconn_notifydata)
    i.sconn_onNumUsedCh                      0x08005010   Section        0  fsm_sconn.o(i.sconn_onNumUsedCh)
    sconn_onNumUsedCh                        0x08005011   Thumb Code    54  fsm_sconn.o(i.sconn_onNumUsedCh)
    i.sconn_onRxAA                           0x08005050   Section        0  fsm_sconn.o(i.sconn_onRxAA)
    sconn_onRxAA                             0x08005051   Thumb Code    20  fsm_sconn.o(i.sconn_onRxAA)
    i.sconn_onRxPDU                          0x08005068   Section        0  fsm_sconn.o(i.sconn_onRxPDU)
    sconn_onRxPDU                            0x08005069   Thumb Code   200  fsm_sconn.o(i.sconn_onRxPDU)
    i.sconn_onSleep                          0x0800513c   Section        0  fsm_sconn.o(i.sconn_onSleep)
    sconn_onSleep                            0x0800513d   Thumb Code   596  fsm_sconn.o(i.sconn_onSleep)
    i.sconn_onTxStarted                      0x080053a4   Section        0  fsm_sconn.o(i.sconn_onTxStarted)
    sconn_onTxStarted                        0x080053a5   Thumb Code    20  fsm_sconn.o(i.sconn_onTxStarted)
    i.sconn_onWakeup                         0x080053bc   Section        0  fsm_sconn.o(i.sconn_onWakeup)
    sconn_onWakeup                           0x080053bd   Thumb Code    86  fsm_sconn.o(i.sconn_onWakeup)
    i.ser_execute_write                      0x0800541c   Section        0  app.o(i.ser_execute_write)
    i.ser_execute_write_rsp                  0x0800541e   Section        0  att.o(i.ser_execute_write_rsp)
    i.ser_notify_handle                      0x08005444   Section        0  att.o(i.ser_notify_handle)
    i.ser_prepare_write                      0x080054b4   Section        0  app.o(i.ser_prepare_write)
    i.ser_prepare_write_rsp                  0x080054b6   Section        0  att.o(i.ser_prepare_write_rsp)
    i.ser_write_rsp                          0x0800550c   Section        0  app.o(i.ser_write_rsp)
    i.ser_write_rsp_pkt                      0x08005540   Section        0  att.o(i.ser_write_rsp_pkt)
    i.server_blob_rd_rsp                     0x0800556c   Section        0  app.o(i.server_blob_rd_rsp)
    i.server_rd_rsp                          0x0800556e   Section        0  app.o(i.server_rd_rsp)
    i.show_character_hd_info                 0x080055a0   Section        0  master_dispatch.o(i.show_character_hd_info)
    i.sm_LL_Dec_m2s                          0x080055b0   Section        0  sm.o(i.sm_LL_Dec_m2s)
    sm_LL_Dec_m2s                            0x080055b1   Thumb Code   218  sm.o(i.sm_LL_Dec_m2s)
    i.sm_SetAddrType                         0x08005694   Section        0  ll_control.o(i.sm_SetAddrType)
    i.sm_Update_SK_IV                        0x080056a0   Section        0  sm.o(i.sm_Update_SK_IV)
    i.sm_cal_MIC_Enc_s2m                     0x080056d8   Section        0  sm.o(i.sm_cal_MIC_Enc_s2m)
    sm_cal_MIC_Enc_s2m                       0x080056d9   Thumb Code   592  sm.o(i.sm_cal_MIC_Enc_s2m)
    i.sm_func_c1                             0x08005930   Section        0  sm.o(i.sm_func_c1)
    i.sm_func_s1                             0x080059c4   Section        0  sm.o(i.sm_func_s1)
    i.sm_function_d1                         0x080059ec   Section        0  sm.o(i.sm_function_d1)
    sm_function_d1                           0x080059ed   Thumb Code    40  sm.o(i.sm_function_d1)
    i.sm_function_dm                         0x08005a14   Section        0  sm.o(i.sm_function_dm)
    sm_function_dm                           0x08005a15   Thumb Code    54  sm.o(i.sm_function_dm)
    i.sm_generate_EDIV_Rand_LTK              0x08005a4c   Section        0  sm.o(i.sm_generate_EDIV_Rand_LTK)
    i.sm_generate_LTK                        0x08005ad8   Section        0  sm.o(i.sm_generate_LTK)
    i.sm_parser                              0x08005b34   Section        0  sm.o(i.sm_parser)
    i.sm_process_pdu                         0x08005b74   Section        0  sm.o(i.sm_process_pdu)
    i.test_adv_generic                       0x08005ba8   Section        0  hwtest.o(i.test_adv_generic)
    i.test_scan                              0x08005bd4   Section        0  hwtest.o(i.test_scan)
    test_scan                                0x08005bd5   Thumb Code    50  hwtest.o(i.test_scan)
    i.txRsp                                  0x08005c0c   Section        0  ll_control.o(i.txRsp)
    i.update_adv_generic_para                0x08005c38   Section        0  hwtest.o(i.update_adv_generic_para)
    update_adv_generic_para                  0x08005c39   Thumb Code   126  hwtest.o(i.update_adv_generic_para)
    .constdata                               0x08005cc0   Section       78  app.o(.constdata)
    .constdata                               0x08005d0e   Section       16  at32f4xx_rcc.o(.constdata)
    APBAHBPscTable                           0x08005d0e   Data           8  at32f4xx_rcc.o(.constdata)
    ADCPscTable                              0x08005d16   Data           8  at32f4xx_rcc.o(.constdata)
    .constdata                               0x08005d20   Section        4  slave_dispatch.o(.constdata)
    s_opCheck                                0x08005d20   Data           4  slave_dispatch.o(.constdata)
    .constdata                               0x08005d24   Section       28  fsm_adv_generic.o(.constdata)
    .constdata                               0x08005d40   Section       28  fsm_scan.o(.constdata)
    .constdata                               0x08005d5c   Section       12  ll_control.o(.constdata)
    IVs                                      0x08005d5c   Data           4  ll_control.o(.constdata)
    SKDs                                     0x08005d60   Data           8  ll_control.o(.constdata)
    .constdata                               0x08005d68   Section      299  sm.o(.constdata)
    sbox                                     0x08005d68   Data         256  sm.o(.constdata)
    Rcon                                     0x08005e68   Data          11  sm.o(.constdata)
    sm_ER                                    0x08005e73   Data          16  sm.o(.constdata)
    sm_IR                                    0x08005e83   Data          16  sm.o(.constdata)
    .constdata                               0x08005e94   Section       28  fsm_sconn.o(.constdata)
    sconnFsm                                 0x08005e94   Data          28  fsm_sconn.o(.constdata)
    .constdata                               0x08005eb0   Section       28  fsm_mconn_sleep.o(.constdata)
    mconn_fsm                                0x08005eb0   Data          28  fsm_mconn_sleep.o(.constdata)
    .constdata                               0x08005ecc   Section        4  master_dispatch.o(.constdata)
    m_opCheck                                0x08005ecc   Data           4  master_dispatch.o(.constdata)
    .data                                    0x20000000   Section        3  main.o(.data)
    advData                                  0x20000000   Data           3  main.o(.data)
    .data                                    0x20000004   Section       15  app.o(.data)
    gConnectedFlag                           0x20000012   Data           1  app.o(.data)
    .data                                    0x20000014   Section       20  bsp.o(.data)
    .data                                    0x20000028   Section        4  at32f4xx_it.o(.data)
    .data                                    0x2000002c   Section        7  retarget.o(.data)
    RxCont                                   0x2000002c   Data           2  retarget.o(.data)
    PosW                                     0x2000002e   Data           1  retarget.o(.data)
    txLen                                    0x2000002f   Data           1  retarget.o(.data)
    led_flash                                0x20000032   Data           1  retarget.o(.data)
    .data                                    0x20000034   Section       69  at32_board.o(.data)
    fac_us                                   0x20000070   Data           4  at32_board.o(.data)
    fac_ms                                   0x20000074   Data           4  at32_board.o(.data)
    Pressed                                  0x20000078   Data           1  at32_board.o(.data)
    .data                                    0x2000007c   Section       20  system_at32f4xx.o(.data)
    .data                                    0x20000090   Section       12  att.o(.data)
    .data                                    0x2000009c   Section       88  hwtest.o(.data)
    user_defined_advLen                      0x2000009e   Data           1  hwtest.o(.data)
    user_defined_adv_rspLen                  0x2000009f   Data           1  hwtest.o(.data)
    ScanState                                0x200000a0   Data           1  hwtest.o(.data)
    status                                   0x200000a2   Data           1  hwtest.o(.data)
    nSwTimerRunning                          0x200000a4   Data           1  hwtest.o(.data)
    len_pdu                                  0x200000a5   Data           1  hwtest.o(.data)
    adv_hdr                                  0x200000a6   Data           2  hwtest.o(.data)
    adv_interval                             0x200000a8   Data           2  hwtest.o(.data)
    scan_rsp_hdr                             0x200000aa   Data           2  hwtest.o(.data)
    hdr0                                     0x200000ac   Data           2  hwtest.o(.data)
    hdr1                                     0x200000ae   Data           2  hwtest.o(.data)
    McuCanSleepMargin                        0x200000b0   Data           2  hwtest.o(.data)
    ScanWindow                               0x200000b2   Data           2  hwtest.o(.data)
    McuWakeUpTick                            0x200000b4   Data           4  hwtest.o(.data)
    TargetSwTimerOutTick                     0x200000b8   Data           4  hwtest.o(.data)
    adv_data                                 0x200000bc   Data           7  hwtest.o(.data)
    scan_rsp_data                            0x200000c3   Data          27  hwtest.o(.data)
    connect_req                              0x200000de   Data          22  hwtest.o(.data)
    .data                                    0x200000f4   Section        6  hwtest.o(.data)
    .data                                    0x200000fa   Section        5  macrogiga_driver.o(.data)
    .data                                    0x20000100   Section        8  data_queue.o(.data)
    node_free                                0x20000100   Data           1  data_queue.o(.data)
    node_error_code                          0x20000101   Data           1  data_queue.o(.data)
    count                                    0x20000104   Data           4  data_queue.o(.data)
    .data                                    0x20000108   Section       61  slave_dispatch.o(.data)
    l2cap_len                                0x20000108   Data           1  slave_dispatch.o(.data)
    CurrentLLHdr                             0x20000109   Data           1  slave_dispatch.o(.data)
    dataHdrP                                 0x2000010a   Data           1  slave_dispatch.o(.data)
    attHandle                                0x2000010c   Data           2  slave_dispatch.o(.data)
    att_incl                                 0x20000114   Data           6  slave_dispatch.o(.data)
    queue_tx                                 0x2000011c   Data           8  slave_dispatch.o(.data)
    .data                                    0x20000148   Section       64  fsm_adv_generic.o(.data)
    adv_len                                  0x20000148   Data           1  fsm_adv_generic.o(.data)
    scan_rsp_len                             0x20000149   Data           1  fsm_adv_generic.o(.data)
    ch                                       0x2000014a   Data           1  fsm_adv_generic.o(.data)
    DoRCFeqCalFlag                           0x2000014b   Data           1  fsm_adv_generic.o(.data)
    DoRCFeqCalStarted                        0x2000014c   Data           1  fsm_adv_generic.o(.data)
    McuRcCalTimerEnableFlag                  0x2000014d   Data           1  fsm_adv_generic.o(.data)
    IsFixChannel37Adv                        0x2000014e   Data           1  fsm_adv_generic.o(.data)
    EnableAdvFlag                            0x2000014f   Data           1  fsm_adv_generic.o(.data)
    cnt_less_calib                           0x20000150   Data           1  fsm_adv_generic.o(.data)
    cnt_RcCal                                0x20000154   Data           2  fsm_adv_generic.o(.data)
    adv_hdr                                  0x20000156   Data           2  fsm_adv_generic.o(.data)
    scan_rsp_hdr                             0x20000158   Data           2  fsm_adv_generic.o(.data)
    adv_interval_lfclk                       0x2000015c   Data           4  fsm_adv_generic.o(.data)
    tx_len_hfclk                             0x20000160   Data           4  fsm_adv_generic.o(.data)
    tx_start                                 0x20000164   Data           4  fsm_adv_generic.o(.data)
    RcCalLfClk                               0x20000168   Data           4  fsm_adv_generic.o(.data)
    RcCalHfClk                               0x2000016c   Data           4  fsm_adv_generic.o(.data)
    McuRcCalTimerTarget                      0x20000170   Data           4  fsm_adv_generic.o(.data)
    LF_AMPLE_U                               0x20000174   Data           4  fsm_adv_generic.o(.data)
    LF_AMPLE_LF                              0x20000178   Data           4  fsm_adv_generic.o(.data)
    LF_AMPLE_D                               0x2000017c   Data           4  fsm_adv_generic.o(.data)
    adv_data                                 0x20000180   Data           4  fsm_adv_generic.o(.data)
    scan_rsp_data                            0x20000184   Data           4  fsm_adv_generic.o(.data)
    .data                                    0x20000188   Section        4  fsm_base.o(.data)
    .data                                    0x2000018c   Section        4  fsm_base.o(.data)
    .data                                    0x20000190   Section        4  fsm_base.o(.data)
    .data                                    0x20000194   Section        8  fsm_base.o(.data)
    connState                                0x20000194   Data           1  fsm_base.o(.data)
    .data                                    0x2000019c   Section       38  fsm_scan.o(.data)
    scan_type                                0x2000019c   Data           1  fsm_scan.o(.data)
    conn_req_len                             0x2000019d   Data           1  fsm_scan.o(.data)
    ch                                       0x2000019e   Data           1  fsm_scan.o(.data)
    Master_DoCal_flag                        0x2000019f   Data           1  fsm_scan.o(.data)
    scan_dat_len                             0x200001a0   Data           1  fsm_scan.o(.data)
    scan_window                              0x200001a2   Data           2  fsm_scan.o(.data)
    scan_req_hdr                             0x200001a4   Data           2  fsm_scan.o(.data)
    conn_req_hdr                             0x200001a6   Data           2  fsm_scan.o(.data)
    rx_start                                 0x200001a8   Data           4  fsm_scan.o(.data)
    conn_req_data                            0x200001ac   Data           4  fsm_scan.o(.data)
    tx_len_hfclk                             0x200001b0   Data           4  fsm_scan.o(.data)
    tx_start                                 0x200001b4   Data           4  fsm_scan.o(.data)
    rx_end_hfclk                             0x200001b8   Data           4  fsm_scan.o(.data)
    dev_adva                                 0x200001bc   Data           6  fsm_scan.o(.data)
    .data                                    0x200001c2   Section        8  ll_control.o(.data)
    chmPaBuf                                 0x200001c2   Data           8  ll_control.o(.data)
    .data                                    0x200001cc   Section       40  ll_control.o(.data)
    sm_Distribute_LTK_flag                   0x200001cd   Data           1  ll_control.o(.data)
    sm_iAddrType                             0x200001ce   Data           1  ll_control.o(.data)
    sm_rAddrType                             0x200001cf   Data           1  ll_control.o(.data)
    hdbak                                    0x200001d0   Data           2  ll_control.o(.data)
    hdr                                      0x200001d2   Data           2  ll_control.o(.data)
    EDivInfo                                 0x200001d4   Data           3  ll_control.o(.data)
    ctr_UpConn                               0x200001d8   Data           4  ll_control.o(.data)
    ctr_UpChm                                0x200001dc   Data           4  ll_control.o(.data)
    sm_ia                                    0x200001e0   Data           6  ll_control.o(.data)
    sm_preq                                  0x200001e6   Data           7  ll_control.o(.data)
    sm_prsp                                  0x200001ed   Data           7  ll_control.o(.data)
    .data                                    0x200001f4   Section       20  sm.o(.data)
    DivIdx                                   0x200001f4   Data           1  sm.o(.data)
    dec_pdu_counter                          0x200001f8   Data           4  sm.o(.data)
    enc_pdu_counter                          0x200001fc   Data           4  sm.o(.data)
    sm_IV                                    0x20000200   Data           8  sm.o(.data)
    .data                                    0x20000208   Section       63  fsm_sconn.o(.data)
    new_pdu_flag                             0x20000208   Data           1  fsm_sconn.o(.data)
    LostPackageNum                           0x20000209   Data           1  fsm_sconn.o(.data)
    NoSleep                                  0x2000020a   Data           1  fsm_sconn.o(.data)
    master_addr_type                         0x2000020c   Data           1  fsm_sconn.o(.data)
    ch                                       0x2000020d   Data           1  fsm_sconn.o(.data)
    unmapped_ch                              0x2000020e   Data           1  fsm_sconn.o(.data)
    winSize                                  0x2000020f   Data           1  fsm_sconn.o(.data)
    hop                                      0x20000210   Data           1  fsm_sconn.o(.data)
    num_used_channels                        0x20000211   Data           1  fsm_sconn.o(.data)
    rx_window                                0x20000212   Data           2  fsm_sconn.o(.data)
    connEvents                               0x20000214   Data           2  fsm_sconn.o(.data)
    winOffset                                0x20000216   Data           2  fsm_sconn.o(.data)
    interval                                 0x20000218   Data           2  fsm_sconn.o(.data)
    latency                                  0x2000021a   Data           2  fsm_sconn.o(.data)
    timeout                                  0x2000021c   Data           2  fsm_sconn.o(.data)
    timeoutTime                              0x2000021e   Data           2  fsm_sconn.o(.data)
    crcInit                                  0x20000220   Data           3  fsm_sconn.o(.data)
    s_ctr_UpChm                              0x20000224   Data           4  fsm_sconn.o(.data)
    s_ctr_UpConn                             0x20000228   Data           4  fsm_sconn.o(.data)
    anchor_hfclk                             0x2000022c   Data           4  fsm_sconn.o(.data)
    tx_start                                 0x20000230   Data           4  fsm_sconn.o(.data)
    AA                                       0x20000234   Data           4  fsm_sconn.o(.data)
    wakeupTime                               0x20000238   Data           4  fsm_sconn.o(.data)
    chM                                      0x2000023c   Data           5  fsm_sconn.o(.data)
    master_addr                              0x20000241   Data           6  fsm_sconn.o(.data)
    .data                                    0x20000248   Section        8  fsm_sconn.o(.data)
    chmPaBuf                                 0x20000248   Data           8  fsm_sconn.o(.data)
    .data                                    0x20000250   Section       40  fsm_mconn_sleep.o(.data)
    LostPackageNum                           0x20000250   Data           1  fsm_mconn_sleep.o(.data)
    m_HasNewData                             0x20000251   Data           1  fsm_mconn_sleep.o(.data)
    bb_rsp_state                             0x20000252   Data           3  fsm_mconn_sleep.o(.data)
    lfclk_wakeup                             0x20000258   Data           4  fsm_mconn_sleep.o(.data)
    _lldata                                  0x2000025c   Data           4  fsm_mconn_sleep.o(.data)
    wakeupTime                               0x20000260   Data           4  fsm_mconn_sleep.o(.data)
    tx_start                                 0x20000264   Data           4  fsm_mconn_sleep.o(.data)
    bb_mapCh                                 0x20000268   Data           7  fsm_mconn_sleep.o(.data)
    .data                                    0x20000278   Section       12  master_dispatch.o(.data)
    l2cap_len                                0x20000278   Data           1  master_dispatch.o(.data)
    currentSN                                0x20000279   Data           1  master_dispatch.o(.data)
    currentNESN                              0x2000027a   Data           1  master_dispatch.o(.data)
    flag                                     0x2000027b   Data           1  master_dispatch.o(.data)
    m_last_service_hd_st                     0x2000027c   Data           2  master_dispatch.o(.data)
    m_last_service_hd_end                    0x2000027e   Data           2  master_dispatch.o(.data)
    .data                                    0x20000284   Section        4  stdout.o(.data)
    .bss                                     0x20000288   Section       36  bsp.o(.bss)
    .bss                                     0x200002ac   Section      400  retarget.o(.bss)
    .bss                                     0x2000043c   Section      101  hwtest.o(.bss)
    user_defined_adv                         0x2000043c   Data          31  hwtest.o(.bss)
    user_defined_adv_rsp                     0x2000045b   Data          31  hwtest.o(.bss)
    rx_buf                                   0x2000047a   Data          39  hwtest.o(.bss)
    .bss                                     0x200004a4   Section      452  data_queue.o(.bss)
    data_buf                                 0x200004a4   Data         330  data_queue.o(.bss)
    node_buf                                 0x200005f0   Data         120  data_queue.o(.bss)
    .bss                                     0x20000668   Section       29  slave_dispatch.o(.bss)
    l2cap_pdu                                0x20000668   Data          29  slave_dispatch.o(.bss)
    .bss                                     0x20000685   Section       39  fsm_scan.o(.bss)
    scan_dat                                 0x20000685   Data          39  fsm_scan.o(.bss)
    .bss                                     0x200006ac   Section       12  ll_control.o(.bss)
    connPaBuf                                0x200006ac   Data          12  ll_control.o(.bss)
    .bss                                     0x200006b8   Section      101  ll_control.o(.bss)
    txbufbak                                 0x200006b8   Data          37  ll_control.o(.bss)
    sm_STK                                   0x200006dd   Data          16  ll_control.o(.bss)
    sm_sRand                                 0x200006ed   Data          16  ll_control.o(.bss)
    sm_mRand                                 0x200006fd   Data          16  ll_control.o(.bss)
    sm_mConfirm                              0x2000070d   Data          16  ll_control.o(.bss)
    .bss                                     0x2000071d   Section      352  sm.o(.bss)
    expandedKeyA                             0x2000071d   Data         176  sm.o(.bss)
    TK                                       0x200007cd   Data          16  sm.o(.bss)
    c1_p1                                    0x200007dd   Data          16  sm.o(.bss)
    c1_p2                                    0x200007ed   Data          16  sm.o(.bss)
    sm_SK                                    0x200007fd   Data          16  sm.o(.bss)
    sm_B0                                    0x2000080d   Data          16  sm.o(.bss)
    sm_B1                                    0x2000081d   Data          16  sm.o(.bss)
    sm_B2                                    0x2000082d   Data          16  sm.o(.bss)
    sm_B3                                    0x2000083d   Data          16  sm.o(.bss)
    sm_A0                                    0x2000084d   Data          16  sm.o(.bss)
    sm_A1                                    0x2000085d   Data          16  sm.o(.bss)
    sm_A2                                    0x2000086d   Data          16  sm.o(.bss)
    .bss                                     0x2000087e   Section       12  fsm_sconn.o(.bss)
    connPaBuf                                0x2000087e   Data          12  fsm_sconn.o(.bss)
    .bss                                     0x2000088a   Section       70  fsm_sconn.o(.bss)
    remapping_table                          0x2000088a   Data          37  fsm_sconn.o(.bss)
    pdu_l2cap_data                           0x200008af   Data          33  fsm_sconn.o(.bss)
    .bss                                     0x200008d0   Section       24  fsm_mconn_sleep.o(.bss)
    bb_lldata                                0x200008d0   Data          24  fsm_mconn_sleep.o(.bss)
    .bss                                     0x200008e8   Section       65  master_dispatch.o(.bss)
    l2cap_pdu                                0x200008e8   Data          33  master_dispatch.o(.bss)
    t_l2cap_pdu                              0x20000909   Data          32  master_dispatch.o(.bss)
    STACK                                    0x20000930   Section     1024  startup_at32f407vgt7.o(STACK)

    Global Symbols

    Symbol Name                              Value     Ov Type        Size  Object(Section)

    BuildAttributes$$THM_ISAv4$E$P$D$K$B$S$7EM$VFPi3$EXTD16$VFPS$VFMA$PE$A:L22UL41UL21$X:L11$S22US41US21$IEEE1$IW$USESV6$~STKCKD$USESV7$~SHL$OSPACE$ROPI$EBA8$MICROLIB$REQ8$PRES8$EABIv2 0x00000000   Number         0  anon$$obj.o ABSOLUTE
    __ARM_use_no_argv                        0x00000000   Number         0  main.o ABSOLUTE
    _printf_a                                0x00000000   Number         0  stubs.o ABSOLUTE
    _printf_c                                0x00000000   Number         0  stubs.o ABSOLUTE
    _printf_charcount                        0x00000000   Number         0  stubs.o ABSOLUTE
    _printf_d                                0x00000000   Number         0  stubs.o ABSOLUTE
    _printf_e                                0x00000000   Number         0  stubs.o ABSOLUTE
    _printf_f                                0x00000000   Number         0  stubs.o ABSOLUTE
    _printf_flags                            0x00000000   Number         0  stubs.o ABSOLUTE
    _printf_fp_dec                           0x00000000   Number         0  stubs.o ABSOLUTE
    _printf_fp_hex                           0x00000000   Number         0  stubs.o ABSOLUTE
    _printf_g                                0x00000000   Number         0  stubs.o ABSOLUTE
    _printf_i                                0x00000000   Number         0  stubs.o ABSOLUTE
    _printf_int_dec                          0x00000000   Number         0  stubs.o ABSOLUTE
    _printf_l                                0x00000000   Number         0  stubs.o ABSOLUTE
    _printf_lc                               0x00000000   Number         0  stubs.o ABSOLUTE
    _printf_ll                               0x00000000   Number         0  stubs.o ABSOLUTE
    _printf_lld                              0x00000000   Number         0  stubs.o ABSOLUTE
    _printf_lli                              0x00000000   Number         0  stubs.o ABSOLUTE
    _printf_llo                              0x00000000   Number         0  stubs.o ABSOLUTE
    _printf_llu                              0x00000000   Number         0  stubs.o ABSOLUTE
    _printf_llx                              0x00000000   Number         0  stubs.o ABSOLUTE
    _printf_longlong_dec                     0x00000000   Number         0  stubs.o ABSOLUTE
    _printf_longlong_hex                     0x00000000   Number         0  stubs.o ABSOLUTE
    _printf_longlong_oct                     0x00000000   Number         0  stubs.o ABSOLUTE
    _printf_ls                               0x00000000   Number         0  stubs.o ABSOLUTE
    _printf_mbtowc                           0x00000000   Number         0  stubs.o ABSOLUTE
    _printf_n                                0x00000000   Number         0  stubs.o ABSOLUTE
    _printf_o                                0x00000000   Number         0  stubs.o ABSOLUTE
    _printf_p                                0x00000000   Number         0  stubs.o ABSOLUTE
    _printf_percent                          0x00000000   Number         0  stubs.o ABSOLUTE
    _printf_pre_padding                      0x00000000   Number         0  stubs.o ABSOLUTE
    _printf_return_value                     0x00000000   Number         0  stubs.o ABSOLUTE
    _printf_s                                0x00000000   Number         0  stubs.o ABSOLUTE
    _printf_sizespec                         0x00000000   Number         0  stubs.o ABSOLUTE
    _printf_str                              0x00000000   Number         0  stubs.o ABSOLUTE
    _printf_truncate_signed                  0x00000000   Number         0  stubs.o ABSOLUTE
    _printf_truncate_unsigned                0x00000000   Number         0  stubs.o ABSOLUTE
    _printf_u                                0x00000000   Number         0  stubs.o ABSOLUTE
    _printf_wc                               0x00000000   Number         0  stubs.o ABSOLUTE
    _printf_wctomb                           0x00000000   Number         0  stubs.o ABSOLUTE
    _printf_widthprec                        0x00000000   Number         0  stubs.o ABSOLUTE
    _printf_x                                0x00000000   Number         0  stubs.o ABSOLUTE
    __cpp_initialize__aeabi_                  - Undefined Weak Reference
    __cxa_finalize                            - Undefined Weak Reference
    _clock_init                               - Undefined Weak Reference
    _microlib_exit                            - Undefined Weak Reference
    __Vectors_Size                           0x00000184   Number         0  startup_at32f407vgt7.o ABSOLUTE
    __Vectors                                0x08000000   Data           4  startup_at32f407vgt7.o(RESET)
    __Vectors_End                            0x08000184   Data           0  startup_at32f407vgt7.o(RESET)
    __main                                   0x08000185   Thumb Code     0  entry.o(.ARM.Collect$$$$00000000)
    _main_stk                                0x08000185   Thumb Code     0  entry2.o(.ARM.Collect$$$$00000001)
    _main_scatterload                        0x08000189   Thumb Code     0  entry5.o(.ARM.Collect$$$$00000004)
    __main_after_scatterload                 0x0800018d   Thumb Code     0  entry5.o(.ARM.Collect$$$$00000004)
    _main_clock                              0x0800018d   Thumb Code     0  entry7b.o(.ARM.Collect$$$$00000008)
    _main_cpp_init                           0x0800018d   Thumb Code     0  entry8b.o(.ARM.Collect$$$$0000000A)
    _main_init                               0x0800018d   Thumb Code     0  entry9a.o(.ARM.Collect$$$$0000000B)
    __rt_final_cpp                           0x08000195   Thumb Code     0  entry10a.o(.ARM.Collect$$$$0000000D)
    __rt_final_exit                          0x08000195   Thumb Code     0  entry11a.o(.ARM.Collect$$$$0000000F)
    Reset_Handler                            0x08000199   Thumb Code     8  startup_at32f407vgt7.o(.text)
    ACC_IRQHandler                           0x080001b3   Thumb Code     0  startup_at32f407vgt7.o(.text)
    ADC1_2_IRQHandler                        0x080001b3   Thumb Code     0  startup_at32f407vgt7.o(.text)
    ADC3_IRQHandler                          0x080001b3   Thumb Code     0  startup_at32f407vgt7.o(.text)
    CAN1_RX1_IRQHandler                      0x080001b3   Thumb Code     0  startup_at32f407vgt7.o(.text)
    CAN1_SCE_IRQHandler                      0x080001b3   Thumb Code     0  startup_at32f407vgt7.o(.text)
    CAN2_RX0_IRQHandler                      0x080001b3   Thumb Code     0  startup_at32f407vgt7.o(.text)
    CAN2_RX1_IRQHandler                      0x080001b3   Thumb Code     0  startup_at32f407vgt7.o(.text)
    CAN2_SCE_IRQHandler                      0x080001b3   Thumb Code     0  startup_at32f407vgt7.o(.text)
    CAN2_TX_IRQHandler                       0x080001b3   Thumb Code     0  startup_at32f407vgt7.o(.text)
    DMA1_Channel1_IRQHandler                 0x080001b3   Thumb Code     0  startup_at32f407vgt7.o(.text)
    DMA1_Channel2_IRQHandler                 0x080001b3   Thumb Code     0  startup_at32f407vgt7.o(.text)
    DMA1_Channel3_IRQHandler                 0x080001b3   Thumb Code     0  startup_at32f407vgt7.o(.text)
    DMA1_Channel4_IRQHandler                 0x080001b3   Thumb Code     0  startup_at32f407vgt7.o(.text)
    DMA1_Channel5_IRQHandler                 0x080001b3   Thumb Code     0  startup_at32f407vgt7.o(.text)
    DMA1_Channel6_IRQHandler                 0x080001b3   Thumb Code     0  startup_at32f407vgt7.o(.text)
    DMA1_Channel7_IRQHandler                 0x080001b3   Thumb Code     0  startup_at32f407vgt7.o(.text)
    DMA2_Channel1_IRQHandler                 0x080001b3   Thumb Code     0  startup_at32f407vgt7.o(.text)
    DMA2_Channel2_IRQHandler                 0x080001b3   Thumb Code     0  startup_at32f407vgt7.o(.text)
    DMA2_Channel3_IRQHandler                 0x080001b3   Thumb Code     0  startup_at32f407vgt7.o(.text)
    DMA2_Channel4_5_IRQHandler               0x080001b3   Thumb Code     0  startup_at32f407vgt7.o(.text)
    DMA2_Channel6_7_IRQHandler               0x080001b3   Thumb Code     0  startup_at32f407vgt7.o(.text)
    ETH_IRQHandler                           0x080001b3   Thumb Code     0  startup_at32f407vgt7.o(.text)
    ETH_WKUP_IRQHandler                      0x080001b3   Thumb Code     0  startup_at32f407vgt7.o(.text)
    EXTI0_IRQHandler                         0x080001b3   Thumb Code     0  startup_at32f407vgt7.o(.text)
    EXTI1_IRQHandler                         0x080001b3   Thumb Code     0  startup_at32f407vgt7.o(.text)
    EXTI2_IRQHandler                         0x080001b3   Thumb Code     0  startup_at32f407vgt7.o(.text)
    EXTI3_IRQHandler                         0x080001b3   Thumb Code     0  startup_at32f407vgt7.o(.text)
    EXTI4_IRQHandler                         0x080001b3   Thumb Code     0  startup_at32f407vgt7.o(.text)
    EXTI9_5_IRQHandler                       0x080001b3   Thumb Code     0  startup_at32f407vgt7.o(.text)
    FLASH_IRQHandler                         0x080001b3   Thumb Code     0  startup_at32f407vgt7.o(.text)
    I2C1_ER_IRQHandler                       0x080001b3   Thumb Code     0  startup_at32f407vgt7.o(.text)
    I2C1_EV_IRQHandler                       0x080001b3   Thumb Code     0  startup_at32f407vgt7.o(.text)
    I2C2_ER_IRQHandler                       0x080001b3   Thumb Code     0  startup_at32f407vgt7.o(.text)
    I2C2_EV_IRQHandler                       0x080001b3   Thumb Code     0  startup_at32f407vgt7.o(.text)
    I2C3_ER_IRQHandler                       0x080001b3   Thumb Code     0  startup_at32f407vgt7.o(.text)
    I2C3_EV_IRQHandler                       0x080001b3   Thumb Code     0  startup_at32f407vgt7.o(.text)
    PVD_IRQHandler                           0x080001b3   Thumb Code     0  startup_at32f407vgt7.o(.text)
    RCC_IRQHandler                           0x080001b3   Thumb Code     0  startup_at32f407vgt7.o(.text)
    RTCAlarm_IRQHandler                      0x080001b3   Thumb Code     0  startup_at32f407vgt7.o(.text)
    RTC_IRQHandler                           0x080001b3   Thumb Code     0  startup_at32f407vgt7.o(.text)
    SDIO1_IRQHandler                         0x080001b3   Thumb Code     0  startup_at32f407vgt7.o(.text)
    SDIO2_IRQHandler                         0x080001b3   Thumb Code     0  startup_at32f407vgt7.o(.text)
    SPI1_IRQHandler                          0x080001b3   Thumb Code     0  startup_at32f407vgt7.o(.text)
    SPI2_I2S2EXT_IRQHandler                  0x080001b3   Thumb Code     0  startup_at32f407vgt7.o(.text)
    SPI3_I2S3EXT_IRQHandler                  0x080001b3   Thumb Code     0  startup_at32f407vgt7.o(.text)
    SPI4_IRQHandler                          0x080001b3   Thumb Code     0  startup_at32f407vgt7.o(.text)
    TAMPER_IRQHandler                        0x080001b3   Thumb Code     0  startup_at32f407vgt7.o(.text)
    TMR1_BRK_TMR9_IRQHandler                 0x080001b3   Thumb Code     0  startup_at32f407vgt7.o(.text)
    TMR1_CC_IRQHandler                       0x080001b3   Thumb Code     0  startup_at32f407vgt7.o(.text)
    TMR1_OV_TMR10_IRQHandler                 0x080001b3   Thumb Code     0  startup_at32f407vgt7.o(.text)
    TMR1_TRG_COM_TMR11_IRQHandler            0x080001b3   Thumb Code     0  startup_at32f407vgt7.o(.text)
    TMR2_GLOBAL_IRQHandler                   0x080001b3   Thumb Code     0  startup_at32f407vgt7.o(.text)
    TMR3_GLOBAL_IRQHandler                   0x080001b3   Thumb Code     0  startup_at32f407vgt7.o(.text)
    TMR4_GLOBAL_IRQHandler                   0x080001b3   Thumb Code     0  startup_at32f407vgt7.o(.text)
    TMR5_GLOBAL_IRQHandler                   0x080001b3   Thumb Code     0  startup_at32f407vgt7.o(.text)
    TMR6_GLOBAL_IRQHandler                   0x080001b3   Thumb Code     0  startup_at32f407vgt7.o(.text)
    TMR7_GLOBAL_IRQHandler                   0x080001b3   Thumb Code     0  startup_at32f407vgt7.o(.text)
    TMR8_BRK_TMR12_IRQHandler                0x080001b3   Thumb Code     0  startup_at32f407vgt7.o(.text)
    TMR8_CC_IRQHandler                       0x080001b3   Thumb Code     0  startup_at32f407vgt7.o(.text)
    TMR8_OV_TMR13_IRQHandler                 0x080001b3   Thumb Code     0  startup_at32f407vgt7.o(.text)
    TMR8_TRG_COM_TMR14_IRQHandler            0x080001b3   Thumb Code     0  startup_at32f407vgt7.o(.text)
    UART4_IRQHandler                         0x080001b3   Thumb Code     0  startup_at32f407vgt7.o(.text)
    UART5_IRQHandler                         0x080001b3   Thumb Code     0  startup_at32f407vgt7.o(.text)
    UART7_IRQHandler                         0x080001b3   Thumb Code     0  startup_at32f407vgt7.o(.text)
    UART8_IRQHandler                         0x080001b3   Thumb Code     0  startup_at32f407vgt7.o(.text)
    USART1_IRQHandler                        0x080001b3   Thumb Code     0  startup_at32f407vgt7.o(.text)
    USART3_IRQHandler                        0x080001b3   Thumb Code     0  startup_at32f407vgt7.o(.text)
    USART6_IRQHandler                        0x080001b3   Thumb Code     0  startup_at32f407vgt7.o(.text)
    USBWakeUp_IRQHandler                     0x080001b3   Thumb Code     0  startup_at32f407vgt7.o(.text)
    USB_HP_CAN1_TX_IRQHandler                0x080001b3   Thumb Code     0  startup_at32f407vgt7.o(.text)
    USB_HP_IRQHandler                        0x080001b3   Thumb Code     0  startup_at32f407vgt7.o(.text)
    USB_LP_CAN1_RX0_IRQHandler               0x080001b3   Thumb Code     0  startup_at32f407vgt7.o(.text)
    USB_LP_IRQHandler                        0x080001b3   Thumb Code     0  startup_at32f407vgt7.o(.text)
    WWDG_IRQHandler                          0x080001b3   Thumb Code     0  startup_at32f407vgt7.o(.text)
    XMC_IRQHandler                           0x080001b3   Thumb Code     0  startup_at32f407vgt7.o(.text)
    __aeabi_memcpy                           0x080001bd   Thumb Code    36  memcpya.o(.text)
    __aeabi_memcpy4                          0x080001bd   Thumb Code     0  memcpya.o(.text)
    __aeabi_memcpy8                          0x080001bd   Thumb Code     0  memcpya.o(.text)
    __aeabi_memset                           0x080001e1   Thumb Code    14  memseta.o(.text)
    __aeabi_memset4                          0x080001e1   Thumb Code     0  memseta.o(.text)
    __aeabi_memset8                          0x080001e1   Thumb Code     0  memseta.o(.text)
    __aeabi_memclr                           0x080001ef   Thumb Code     4  memseta.o(.text)
    __aeabi_memclr4                          0x080001ef   Thumb Code     0  memseta.o(.text)
    __aeabi_memclr8                          0x080001ef   Thumb Code     0  memseta.o(.text)
    _memset$wrapper                          0x080001f3   Thumb Code    18  memseta.o(.text)
    memcmp                                   0x08000205   Thumb Code    26  memcmp.o(.text)
    __aeabi_uldivmod                         0x0800021f   Thumb Code    98  uldiv.o(.text)
    __scatterload                            0x08000281   Thumb Code    28  init.o(.text)
    __scatterload_rt2                        0x08000281   Thumb Code     0  init.o(.text)
    __aeabi_llsl                             0x080002a5   Thumb Code    30  llshl.o(.text)
    _ll_shift_l                              0x080002a5   Thumb Code     0  llshl.o(.text)
    __aeabi_llsr                             0x080002c3   Thumb Code    32  llushr.o(.text)
    _ll_ushift_r                             0x080002c3   Thumb Code     0  llushr.o(.text)
    __decompress                             0x080002e3   Thumb Code     0  __dczerorl2.o(.text)
    __decompress1                            0x080002e3   Thumb Code    86  __dczerorl2.o(.text)
    AT32_BUTTON_Init                         0x08000339   Thumb Code    52  at32_board.o(i.AT32_BUTTON_Init)
    AT32_Board_Init                          0x08000379   Thumb Code    56  at32_board.o(i.AT32_Board_Init)
    AT32_LEDn_Init                           0x080003b1   Thumb Code    58  at32_board.o(i.AT32_LEDn_Init)
    AT32_LEDn_OFF                            0x080003f9   Thumb Code    32  at32_board.o(i.AT32_LEDn_OFF)
    AT32_LEDn_ON                             0x08000421   Thumb Code    32  at32_board.o(i.AT32_LEDn_ON)
    BSP_Init                                 0x08000449   Thumb Code   214  bsp.o(i.BSP_Init)
    BusFault_Handler                         0x08000541   Thumb Code     4  at32f4xx_it.o(i.BusFault_Handler)
    CheckComPortInData                       0x08000571   Thumb Code   134  retarget.o(i.CheckComPortInData)
    CheckMcuTimerForRcCal                    0x08000605   Thumb Code    40  fsm_adv_generic.o(i.CheckMcuTimerForRcCal)
    ConnectStausUpdate                       0x08000679   Thumb Code    48  app.o(i.ConnectStausUpdate)
    Convert2BigLittleEndian                  0x080006f1   Thumb Code    24  sm.o(i.Convert2BigLittleEndian)
    DebugMon_Handler                         0x08000709   Thumb Code     2  at32f4xx_it.o(i.DebugMon_Handler)
    Delay_init                               0x0800070d   Thumb Code    54  at32_board.o(i.Delay_init)
    DoRcConvert_HF_LF_COEF                   0x08000759   Thumb Code    14  fsm_adv_generic.o(i.DoRcConvert_HF_LF_COEF)
    DoRcConvert_LF_AMPLE                     0x0800076d   Thumb Code    34  fsm_adv_generic.o(i.DoRcConvert_LF_AMPLE)
    EXTI15_10_IRQHandler                     0x08000795   Thumb Code    28  at32f4xx_it.o(i.EXTI15_10_IRQHandler)
    EXTI_ClearIntPendingBit                  0x080007b1   Thumb Code     6  at32f4xx_exti.o(i.EXTI_ClearIntPendingBit)
    EXTI_GetIntStatus                        0x080007bd   Thumb Code    34  at32f4xx_exti.o(i.EXTI_GetIntStatus)
    EXTI_Init                                0x080007e5   Thumb Code   142  at32f4xx_exti.o(i.EXTI_Init)
    GPIO_EXTILineConfig                      0x08000879   Thumb Code    60  at32f4xx_gpio.o(i.GPIO_EXTILineConfig)
    GPIO_Init                                0x080008b9   Thumb Code   278  at32f4xx_gpio.o(i.GPIO_Init)
    GPIO_PinsRemapConfig                     0x080009d1   Thumb Code  1388  at32f4xx_gpio.o(i.GPIO_PinsRemapConfig)
    GPIO_ReadInputDataBit                    0x08000f41   Thumb Code    18  at32f4xx_gpio.o(i.GPIO_ReadInputDataBit)
    GPIO_ResetBits                           0x08000f53   Thumb Code     4  at32f4xx_gpio.o(i.GPIO_ResetBits)
    GPIO_SetBits                             0x08000f57   Thumb Code     4  at32f4xx_gpio.o(i.GPIO_SetBits)
    GPIO_StructInit                          0x08000f5b   Thumb Code    16  at32f4xx_gpio.o(i.GPIO_StructInit)
    GenerateTxQueue                          0x08000f6d   Thumb Code    70  slave_dispatch.o(i.GenerateTxQueue)
    GetAdvCh                                 0x08000fbd   Thumb Code     6  fsm_adv_generic.o(i.GetAdvCh)
    GetAdvEnable                             0x08000fc9   Thumb Code     6  fsm_adv_generic.o(i.GetAdvEnable)
    GetCharListDim                           0x08000fd5   Thumb Code     4  app.o(i.GetCharListDim)
    GetConnectedStatus                       0x08000fd9   Thumb Code     6  app.o(i.GetConnectedStatus)
    GetPrimaryServiceHandle                  0x08000fe5   Thumb Code    10  app.o(i.GetPrimaryServiceHandle)
    GetSysTickCount                          0x08000ff1   Thumb Code     6  at32f4xx_it.o(i.GetSysTickCount)
    HardFault_Handler                        0x08000ffd   Thumb Code     4  at32f4xx_it.o(i.HardFault_Handler)
    IWDG_KeyRegWrite                         0x08001001   Thumb Code     6  at32f4xx_iwdg.o(i.IWDG_KeyRegWrite)
    IWDG_ReloadCounter                       0x0800100d   Thumb Code    10  at32f4xx_iwdg.o(i.IWDG_ReloadCounter)
    IWDG_SetPrescaler                        0x0800101d   Thumb Code     6  at32f4xx_iwdg.o(i.IWDG_SetPrescaler)
    IWDG_SetReload                           0x08001029   Thumb Code     6  at32f4xx_iwdg.o(i.IWDG_SetReload)
    IrqMcuGotoSleepAndWakeup                 0x08001035   Thumb Code     2  bsp.o(i.IrqMcuGotoSleepAndWakeup)
    IsIrqEnabled                             0x08001039   Thumb Code    22  bsp.o(i.IsIrqEnabled)
    IsSwTimeOut                              0x08001055   Thumb Code    30  hwtest.o(i.IsSwTimeOut)
    LED_ONOFF                                0x08001079   Thumb Code    22  bsp.o(i.LED_ONOFF)
    McuGotoSleepAndWakeup                    0x0800108f   Thumb Code     2  bsp.o(i.McuGotoSleepAndWakeup)
    MemManage_Handler                        0x08001091   Thumb Code     4  at32f4xx_it.o(i.MemManage_Handler)
    NMI_Handler                              0x08001095   Thumb Code     2  at32f4xx_it.o(i.NMI_Handler)
    NVIC_Init                                0x08001099   Thumb Code   100  misc.o(i.NVIC_Init)
    PendSV_Handler                           0x08001109   Thumb Code     2  at32f4xx_it.o(i.PendSV_Handler)
    RCC_APB1PeriphClockCmd                   0x0800110d   Thumb Code    26  at32f4xx_rcc.o(i.RCC_APB1PeriphClockCmd)
    RCC_APB2PeriphClockCmd                   0x0800112d   Thumb Code    26  at32f4xx_rcc.o(i.RCC_APB2PeriphClockCmd)
    RCC_GetClocksFreq                        0x0800114d   Thumb Code   300  at32f4xx_rcc.o(i.RCC_GetClocksFreq)
    ReMConnect                               0x08001295   Thumb Code    66  fsm_mconn_sleep.o(i.ReMConnect)
    ReSConnect                               0x080012ed   Thumb Code   102  fsm_sconn.o(i.ReSConnect)
    SIG_CommandRej                           0x08001365   Thumb Code    74  l2cap.o(i.SIG_CommandRej)
    SPI_CS_Disable_                          0x080013b1   Thumb Code    14  bsp.o(i.SPI_CS_Disable_)
    SPI_CS_Enable_                           0x080013c5   Thumb Code    14  bsp.o(i.SPI_CS_Enable_)
    SPI_Config                               0x080013d9   Thumb Code   156  bsp.o(i.SPI_Config)
    SPI_DefaultInitParaConfig                0x08001485   Thumb Code    24  at32f4xx_spi.o(i.SPI_DefaultInitParaConfig)
    SPI_Enable                               0x0800149d   Thumb Code    24  at32f4xx_spi.o(i.SPI_Enable)
    SPI_I2S_GetFlagStatus                    0x080014b5   Thumb Code    18  at32f4xx_spi.o(i.SPI_I2S_GetFlagStatus)
    SPI_I2S_RxData                           0x080014c7   Thumb Code     6  at32f4xx_spi.o(i.SPI_I2S_RxData)
    SPI_I2S_TxData                           0x080014cd   Thumb Code     4  at32f4xx_spi.o(i.SPI_I2S_TxData)
    SPI_Init                                 0x080014d1   Thumb Code    90  at32f4xx_spi.o(i.SPI_Init)
    SPI_ReadBuf                              0x0800152b   Thumb Code    60  bsp.o(i.SPI_ReadBuf)
    SPI_WriteBuf                             0x08001567   Thumb Code    58  bsp.o(i.SPI_WriteBuf)
    SPI_WriteRead                            0x080015a1   Thumb Code    52  bsp.o(i.SPI_WriteRead)
    SVC_Handler                              0x080015d9   Thumb Code     2  at32f4xx_it.o(i.SVC_Handler)
    SaveCurrentHdr                           0x080015dd   Thumb Code     6  slave_dispatch.o(i.SaveCurrentHdr)
    SaveInitAddr                             0x080015e9   Thumb Code    12  ll_control.o(i.SaveInitAddr)
    SetBleIntRunningMode                     0x08001619   Thumb Code     8  hwtest.o(i.SetBleIntRunningMode)
    SetMcuSleepFlag                          0x08001625   Thumb Code    10  hwtest.o(i.SetMcuSleepFlag)
    SetSwTimer                               0x08001635   Thumb Code    20  hwtest.o(i.SetSwTimer)
    StartBBTimerForRcCal                     0x0800172d   Thumb Code    18  fsm_adv_generic.o(i.StartBBTimerForRcCal)
    SysTick_CLKSourceConfig                  0x08001745   Thumb Code    40  misc.o(i.SysTick_CLKSourceConfig)
    SysTick_Handler                          0x0800176d   Thumb Code    18  at32f4xx_it.o(i.SysTick_Handler)
    SystemInit                               0x08001785   Thumb Code   106  system_at32f4xx.o(i.SystemInit)
    Tx_len                                   0x08001809   Thumb Code    12  fsm_base.o(i.Tx_len)
    UART_Print_Init                          0x08001819   Thumb Code   142  at32_board.o(i.UART_Print_Init)
    USART2_IRQHandler                        0x080018b1   Thumb Code   132  retarget.o(i.USART2_IRQHandler)
    USART_Cmd                                0x0800194d   Thumb Code    24  at32f4xx_usart.o(i.USART_Cmd)
    USART_GetFlagStatus                      0x08001965   Thumb Code    26  at32f4xx_usart.o(i.USART_GetFlagStatus)
    USART_GetITStatus                        0x0800197f   Thumb Code    84  at32f4xx_usart.o(i.USART_GetITStatus)
    USART_INTConfig                          0x080019d3   Thumb Code    74  at32f4xx_usart.o(i.USART_INTConfig)
    USART_Init                               0x08001a1d   Thumb Code   210  at32f4xx_usart.o(i.USART_Init)
    USART_ReceiveData                        0x08001af5   Thumb Code    10  at32f4xx_usart.o(i.USART_ReceiveData)
    USART_SendData                           0x08001aff   Thumb Code     8  at32f4xx_usart.o(i.USART_SendData)
    USART_StructInit                         0x08001b07   Thumb Code    24  at32f4xx_usart.o(i.USART_StructInit)
    Uart_Init                                0x08001b21   Thumb Code   146  bsp.o(i.Uart_Init)
    UsageFault_Handler                       0x08001bc9   Thumb Code     4  at32f4xx_it.o(i.UsageFault_Handler)
    UsrProcCallback                          0x08001bcd   Thumb Code    78  retarget.o(i.UsrProcCallback)
    __0printf$8                              0x08001c31   Thumb Code    22  printf8.o(i.__0printf$8)
    __1printf$8                              0x08001c31   Thumb Code     0  printf8.o(i.__0printf$8)
    __2printf                                0x08001c31   Thumb Code     0  printf8.o(i.__0printf$8)
    __scatterload_copy                       0x08001c51   Thumb Code    14  handlers.o(i.__scatterload_copy)
    __scatterload_null                       0x08001c5f   Thumb Code     2  handlers.o(i.__scatterload_null)
    __scatterload_zeroinit                   0x08001c61   Thumb Code    14  handlers.o(i.__scatterload_zeroinit)
    aes_encrypt_HW                           0x08002735   Thumb Code     6  app.o(i.aes_encrypt_HW)
    att_ErrorFd_eCode                        0x08002805   Thumb Code    52  att.o(i.att_ErrorFd_eCode)
    att_exMtuReq                             0x08002845   Thumb Code    36  att.o(i.att_exMtuReq)
    att_notFd                                0x08002871   Thumb Code     6  att.o(i.att_notFd)
    att_server_findByType                    0x0800287b   Thumb Code   134  att.o(i.att_server_findByType)
    att_server_findIn                        0x08002901   Thumb Code   156  att.o(i.att_server_findIn)
    att_server_rd                            0x080029a1   Thumb Code    94  att.o(i.att_server_rd)
    att_server_rdByGrType                    0x08002a01   Thumb Code    58  app.o(i.att_server_rdByGrType)
    att_server_rdByGrTypeRspPrimaryService   0x08002a41   Thumb Code   114  att.o(i.att_server_rdByGrTypeRspPrimaryService)
    att_server_rdByType                      0x08002ab5   Thumb Code   606  att.o(i.att_server_rdByType)
    bb_DoRcCal                               0x08002d21   Thumb Code    44  fsm_adv_generic.o(i.bb_DoRcCal)
    bb_advCalTimerIrq                        0x08002d55   Thumb Code     4  fsm_adv_generic.o(i.bb_advCalTimerIrq)
    bb_advGenericSetup                       0x08002d59   Thumb Code    38  fsm_adv_generic.o(i.bb_advGenericSetup)
    bb_advGenericStart                       0x08002d85   Thumb Code    10  fsm_adv_generic.o(i.bb_advGenericStart)
    bb_getConnState                          0x08002d99   Thumb Code    30  fsm_base.o(i.bb_getConnState)
    bb_mconnStart                            0x08002dbd   Thumb Code   138  fsm_mconn_sleep.o(i.bb_mconnStart)
    bb_scanSetup                             0x08002e5d   Thumb Code    40  fsm_scan.o(i.bb_scanSetup)
    bb_scanStart                             0x08002e89   Thumb Code    10  fsm_scan.o(i.bb_scanStart)
    bb_sconnStart                            0x08002e9d   Thumb Code   126  fsm_sconn.o(i.bb_sconnStart)
    bb_setConnState                          0x08002f2d   Thumb Code     6  fsm_base.o(i.bb_setConnState)
    ble_nMsRoutine                           0x08002f39   Thumb Code    40  hwtest.o(i.ble_nMsRoutine)
    ble_run                                  0x08002f69   Thumb Code  1028  hwtest.o(i.ble_run)
    ble_run_interrupt_start                  0x0800336d   Thumb Code    24  hwtest.o(i.ble_run_interrupt_start)
    ble_set_adv_data                         0x08003389   Thumb Code    38  hwtest.o(i.ble_set_adv_data)
    ble_set_adv_type                         0x080033b9   Thumb Code    18  hwtest.o(i.ble_set_adv_type)
    empty_pk                                 0x08003465   Thumb Code    16  ll_control.o(i.empty_pk)
    fputc                                    0x08003555   Thumb Code    32  at32_board.o(i.fputc)
    gatt_user_send_notify_data_callback      0x0800358b   Thumb Code     2  app.o(i.gatt_user_send_notify_data_callback)
    getDeviceInfoData                        0x0800358d   Thumb Code    10  app.o(i.getDeviceInfoData)
    get_ble_version                          0x0800359d   Thumb Code     4  hwtest.o(i.get_ble_version)
    get_current_ch                           0x080035b1   Thumb Code     6  fsm_sconn.o(i.get_current_ch)
    get_node_free                            0x080035bd   Thumb Code     6  data_queue.o(i.get_node_free)
    is_node_empty                            0x080035c9   Thumb Code    16  data_queue.o(i.is_node_empty)
    mOpCheck_Start                           0x080035dd   Thumb Code    14  master_dispatch.o(i.mOpCheck_Start)
    m_GenerateTxQueue                        0x080035f5   Thumb Code    42  master_dispatch.o(i.m_GenerateTxQueue)
    m_RdByGroupTypeRsp                       0x08003629   Thumb Code    68  master_dispatch.o(i.m_RdByGroupTypeRsp)
    m_RdByTypeChar                           0x08003671   Thumb Code    84  master_dispatch.o(i.m_RdByTypeChar)
    m_RdByTypeRsp                            0x080036c5   Thumb Code    52  master_dispatch.o(i.m_RdByTypeRsp)
    m_UpdateNESN                             0x080036fd   Thumb Code    12  master_dispatch.o(i.m_UpdateNESN)
    m_UpdateSN                               0x0800370d   Thumb Code    12  master_dispatch.o(i.m_UpdateSN)
    m_attErrorRsp                            0x0800371d   Thumb Code    28  master_dispatch.o(i.m_attErrorRsp)
    m_att_Confirmation                       0x0800373d   Thumb Code    50  master_dispatch.o(i.m_att_Confirmation)
    m_att_readGrpBypService                  0x080037b9   Thumb Code    82  master_dispatch.o(i.m_att_readGrpBypService)
    m_att_readReq                            0x0800380d   Thumb Code    78  master_dispatch.o(i.m_att_readReq)
    m_opcodeCheck_parser                     0x080038b9   Thumb Code   180  master_dispatch.o(i.m_opcodeCheck_parser)
    main                                     0x08003975   Thumb Code   120  main.o(i.main)
    mg_activate                              0x08003cb1   Thumb Code    14  macrogiga_driver.o(i.mg_activate)
    mg_aes_encrypt                           0x08003cc1   Thumb Code    36  sm.o(i.mg_aes_encrypt)
    mg_readBuf                               0x08003ce9   Thumb Code     4  macrogiga_driver.o(i.mg_readBuf)
    mg_readReg                               0x08003ced   Thumb Code     6  macrogiga_driver.o(i.mg_readReg)
    mg_writeBuf                              0x08003cf3   Thumb Code     8  macrogiga_driver.o(i.mg_writeBuf)
    mg_writeReg                              0x08003cfb   Thumb Code    16  macrogiga_driver.o(i.mg_writeReg)
    queue_empty                              0x08003d0b   Thumb Code    16  data_queue.o(i.queue_empty)
    queue_init                               0x08003d1d   Thumb Code    14  data_queue.o(i.queue_init)
    queue_pop                                0x08003d31   Thumb Code    24  data_queue.o(i.queue_pop)
    queue_push                               0x08003d49   Thumb Code    32  data_queue.o(i.queue_push)
    radio_clearIRQ                           0x08003d69   Thumb Code     8  macrogiga_driver.o(i.radio_clearIRQ)
    radio_do_cal                             0x08003d71   Thumb Code   154  macrogiga_driver.o(i.radio_do_cal)
    radio_do_cal_check_result                0x08003e0b   Thumb Code    34  macrogiga_driver.o(i.radio_do_cal_check_result)
    radio_do_cal_start                       0x08003e2d   Thumb Code    36  macrogiga_driver.o(i.radio_do_cal_start)
    radio_do_cal_step_check                  0x08003e55   Thumb Code   160  macrogiga_driver.o(i.radio_do_cal_step_check)
    radio_getClock                           0x08003ef9   Thumb Code    62  macrogiga_driver.o(i.radio_getClock)
    radio_getHClock                          0x08003f37   Thumb Code    38  macrogiga_driver.o(i.radio_getHClock)
    radio_getHdr                             0x08003f5d   Thumb Code    50  macrogiga_driver.o(i.radio_getHdr)
    radio_getPdu                             0x08003f95   Thumb Code   148  macrogiga_driver.o(i.radio_getPdu)
    radio_initBle                            0x0800402d   Thumb Code   422  macrogiga_driver.o(i.radio_initBle)
    radio_readIRQ                            0x080041dd   Thumb Code    20  macrogiga_driver.o(i.radio_readIRQ)
    radio_setAccessCode                      0x080041f1   Thumb Code    38  macrogiga_driver.o(i.radio_setAccessCode)
    radio_setAdvHeader                       0x08004217   Thumb Code    24  macrogiga_driver.o(i.radio_setAdvHeader)
    radio_setAdvPayload                      0x0800422f   Thumb Code    10  macrogiga_driver.o(i.radio_setAdvPayload)
    radio_setChannel                         0x08004239   Thumb Code    14  macrogiga_driver.o(i.radio_setChannel)
    radio_setCrcInit                         0x08004247   Thumb Code    32  macrogiga_driver.o(i.radio_setCrcInit)
    radio_setIrqMask                         0x08004267   Thumb Code    24  macrogiga_driver.o(i.radio_setIrqMask)
    radio_setMode                            0x0800427f   Thumb Code    54  macrogiga_driver.o(i.radio_setMode)
    radio_setPaGain                          0x080042b5   Thumb Code    24  macrogiga_driver.o(i.radio_setPaGain)
    radio_setScanAInitA                      0x080042cd   Thumb Code    50  macrogiga_driver.o(i.radio_setScanAInitA)
    radio_setStartTime                       0x080042ff   Thumb Code    30  macrogiga_driver.o(i.radio_setStartTime)
    radio_setTimeout                         0x0800431d   Thumb Code    42  macrogiga_driver.o(i.radio_setTimeout)
    radio_setTxPayload                       0x08004347   Thumb Code    10  macrogiga_driver.o(i.radio_setTxPayload)
    radio_setTxPduHeader                     0x08004351   Thumb Code    28  macrogiga_driver.o(i.radio_setTxPduHeader)
    radio_setWakeupTime                      0x0800436d   Thumb Code    36  macrogiga_driver.o(i.radio_setWakeupTime)
    radio_sleep                              0x08004391   Thumb Code    34  macrogiga_driver.o(i.radio_sleep)
    radio_wakeup                             0x080043b3   Thumb Code     8  macrogiga_driver.o(i.radio_wakeup)
    readQueue                                0x080043bd   Thumb Code    60  data_queue.o(i.readQueue)
    reset_sm_flags                           0x080043fd   Thumb Code    10  ll_control.o(i.reset_sm_flags)
    restoretxbuf                             0x0800440d   Thumb Code    26  ll_control.o(i.restoretxbuf)
    sOpCheck_Start                           0x08004431   Thumb Code    16  slave_dispatch.o(i.sOpCheck_Start)
    s_llChmReq                               0x08004449   Thumb Code     2  ll_control.o(i.s_llChmReq)
    s_llConnParaRsp                          0x0800444d   Thumb Code    44  ll_control.o(i.s_llConnParaRsp)
    s_llEncReq                               0x08004495   Thumb Code   230  ll_control.o(i.s_llEncReq)
    s_llFea                                  0x08004589   Thumb Code    38  ll_control.o(i.s_llFea)
    s_llSmGetTKType                          0x080045c1   Thumb Code    20  sm.o(i.s_llSmGetTKType)
    s_llSmPair                               0x080045d9   Thumb Code   176  ll_control.o(i.s_llSmPair)
    s_llSmPairConfirm                        0x0800468d   Thumb Code   174  ll_control.o(i.s_llSmPairConfirm)
    s_llSmPairFailed                         0x08004749   Thumb Code    72  ll_control.o(i.s_llSmPairFailed)
    s_llSmPairRand                           0x08004795   Thumb Code   202  ll_control.o(i.s_llSmPairRand)
    s_llStartEncRsp                          0x0800486d   Thumb Code   210  ll_control.o(i.s_llStartEncRsp)
    s_llTer                                  0x08004945   Thumb Code    38  ll_control.o(i.s_llTer)
    s_llTerminate                            0x08004971   Thumb Code    42  ll_control.o(i.s_llTerminate)
    s_llUnknownRsp                           0x080049a5   Thumb Code    40  ll_control.o(i.s_llUnknownRsp)
    s_llVersion                              0x080049d5   Thumb Code    42  ll_control.o(i.s_llVersion)
    s_opcodeCheckOld                         0x08004a79   Thumb Code   726  slave_dispatch.o(i.s_opcodeCheckOld)
    savetxbuf                                0x08004d5d   Thumb Code    16  ll_control.o(i.savetxbuf)
    sconnConUpdate                           0x08004f35   Thumb Code    92  fsm_sconn.o(i.sconnConUpdate)
    sconnUpChm                               0x08004f95   Thumb Code    40  fsm_sconn.o(i.sconnUpChm)
    sconn_ReSetLLSupvTimer                   0x08004fc1   Thumb Code     4  fsm_sconn.o(i.sconn_ReSetLLSupvTimer)
    sconn_notifydata                         0x08004fc5   Thumb Code    70  att.o(i.sconn_notifydata)
    ser_execute_write                        0x0800541d   Thumb Code     2  app.o(i.ser_execute_write)
    ser_execute_write_rsp                    0x0800541f   Thumb Code    38  att.o(i.ser_execute_write_rsp)
    ser_notify_handle                        0x08005445   Thumb Code   112  att.o(i.ser_notify_handle)
    ser_prepare_write                        0x080054b5   Thumb Code     2  app.o(i.ser_prepare_write)
    ser_prepare_write_rsp                    0x080054b7   Thumb Code    86  att.o(i.ser_prepare_write_rsp)
    ser_write_rsp                            0x0800550d   Thumb Code    52  app.o(i.ser_write_rsp)
    ser_write_rsp_pkt                        0x08005541   Thumb Code    36  att.o(i.ser_write_rsp_pkt)
    server_blob_rd_rsp                       0x0800556d   Thumb Code     2  app.o(i.server_blob_rd_rsp)
    server_rd_rsp                            0x0800556f   Thumb Code    50  app.o(i.server_rd_rsp)
    show_character_hd_info                   0x080055a1   Thumb Code    16  master_dispatch.o(i.show_character_hd_info)
    sm_SetAddrType                           0x08005695   Thumb Code     8  ll_control.o(i.sm_SetAddrType)
    sm_Update_SK_IV                          0x080056a1   Thumb Code    46  sm.o(i.sm_Update_SK_IV)
    sm_func_c1                               0x08005931   Thumb Code   142  sm.o(i.sm_func_c1)
    sm_func_s1                               0x080059c5   Thumb Code    34  sm.o(i.sm_func_s1)
    sm_generate_EDIV_Rand_LTK                0x08005a4d   Thumb Code   126  sm.o(i.sm_generate_EDIV_Rand_LTK)
    sm_generate_LTK                          0x08005ad9   Thumb Code    82  sm.o(i.sm_generate_LTK)
    sm_parser                                0x08005b35   Thumb Code    56  sm.o(i.sm_parser)
    sm_process_pdu                           0x08005b75   Thumb Code    46  sm.o(i.sm_process_pdu)
    test_adv_generic                         0x08005ba9   Thumb Code    38  hwtest.o(i.test_adv_generic)
    txRsp                                    0x08005c0d   Thumb Code    42  ll_control.o(i.txRsp)
    AttCharList                              0x08005cc0   Data          30  app.o(.constdata)
    AttUuid128List                           0x08005cde   Data          48  app.o(.constdata)
    adv_generic_fsm                          0x08005d24   Data          28  fsm_adv_generic.o(.constdata)
    scan_fsm                                 0x08005d40   Data          28  fsm_scan.o(.constdata)
    Region$$Table$$Base                      0x08005ed0   Number         0  anon$$obj.o(Region$$Table)
    Region$$Table$$Limit                     0x08005ef0   Number         0  anon$$obj.o(Region$$Table)
    DeviceInfo                               0x20000004   Data          12  app.o(.data)
    cur_notifyhandle                         0x20000010   Data           2  app.o(.data)
    GPIO_InitStructure                       0x20000014   Data           4  bsp.o(.data)
    EXTI_InitStructure                       0x20000018   Data           8  bsp.o(.data)
    NVIC_InitStructure                       0x20000020   Data           4  bsp.o(.data)
    LsiFreq                                  0x20000024   Data           4  bsp.o(.data)
    SysTick_Count                            0x20000028   Data           4  at32f4xx_it.o(.data)
    comrxbuf_rd_pos                          0x20000030   Data           2  retarget.o(.data)
    LED_GPIO_PORT                            0x20000034   Data          16  at32_board.o(.data)
    LED_GPIO_PIN                             0x20000044   Data           8  at32_board.o(.data)
    LED_GPIO_RCC_CLK                         0x2000004c   Data          16  at32_board.o(.data)
    BUTTON_GPIO_PORT                         0x2000005c   Data           8  at32_board.o(.data)
    BUTTON_GPIO_PIN                          0x20000064   Data           4  at32_board.o(.data)
    BUTTON_GPIO_RCC_CLK                      0x20000068   Data           8  at32_board.o(.data)
    SystemCoreClock                          0x2000007c   Data           4  system_at32f4xx.o(.data)
    AHBPscTable                              0x20000080   Data          16  system_at32f4xx.o(.data)
    att_enable_default_device_info           0x20000090   Data           1  att.o(.data)
    FIRMWARE_INFO                            0x20000091   Data          11  att.o(.data)
    s_flags                                  0x2000009c   Data           1  hwtest.o(.data)
    m_flags                                  0x2000009d   Data           1  hwtest.o(.data)
    BleRunStepFlags                          0x200000a1   Data           1  hwtest.o(.data)
    role_type                                0x200000a3   Data           1  hwtest.o(.data)
    myAddr                                   0x200000f4   Data           6  hwtest.o(.data)
    ChipVer                                  0x200000fa   Data           1  macrogiga_driver.o(.data)
    radio_do_cal_state                       0x200000fb   Data           1  macrogiga_driver.o(.data)
    radio_rf_cal_method                      0x200000fc   Data           1  macrogiga_driver.o(.data)
    Header                                   0x200000fd   Data           2  macrogiga_driver.o(.data)
    s_opcodeChe                              0x20000110   Data           4  slave_dispatch.o(.data)
    s_TxBuff                                 0x20000124   Data          33  slave_dispatch.o(.data)
    WakeupDelay                              0x20000152   Data           2  fsm_adv_generic.o(.data)
    bb_fsm                                   0x20000188   Data           4  fsm_base.o(.data)
    wakeup_hfclk                             0x2000018c   Data           4  fsm_base.o(.data)
    wakeup_lfclk                             0x20000190   Data           4  fsm_base.o(.data)
    tx_len_hfclkb                            0x20000198   Data           4  fsm_base.o(.data)
    StartEncryption                          0x200001cc   Data           1  ll_control.o(.data)
    rssi_data                                0x2000020b   Data           1  fsm_sconn.o(.data)
    queue_m                                  0x20000270   Data           8  fsm_mconn_sleep.o(.data)
    m_opcodeChe                              0x20000280   Data           4  master_dispatch.o(.data)
    __stdout                                 0x20000284   Data           4  stdout.o(.data)
    SPI_InitStructure                        0x20000288   Data          18  bsp.o(.bss)
    USART_InitStructure                      0x2000029c   Data          16  bsp.o(.bss)
    txBuf                                    0x200002ac   Data         200  retarget.o(.bss)
    rxBuf                                    0x20000374   Data         200  retarget.o(.bss)
    __initial_sp                             0x20000d30   Data           0  startup_at32f407vgt7.o(STACK)



==============================================================================

Memory Map of the image

  Image Entry point : 0x08000185

  Load Region LR_IROM1 (Base: 0x08000000, Size: 0x00006178, Max: 0x00100000, ABSOLUTE, COMPRESSED[0x00005fac])

    Execution Region ER_IROM1 (Exec base: 0x08000000, Load base: 0x08000000, Size: 0x00005ef0, Max: 0x00100000, ABSOLUTE)

    Exec Addr    Load Addr    Size         Type   Attr      Idx    E Section Name        Object

    0x08000000   0x08000000   0x00000184   Data   RO          735    RESET               startup_at32f407vgt7.o
    0x08000184   0x08000184   0x00000000   Code   RO         3257  * .ARM.Collect$$$$00000000  mc_w.l(entry.o)
    0x08000184   0x08000184   0x00000004   Code   RO         3529    .ARM.Collect$$$$00000001  mc_w.l(entry2.o)
    0x08000188   0x08000188   0x00000004   Code   RO         3532    .ARM.Collect$$$$00000004  mc_w.l(entry5.o)
    0x0800018c   0x0800018c   0x00000000   Code   RO         3534    .ARM.Collect$$$$00000008  mc_w.l(entry7b.o)
    0x0800018c   0x0800018c   0x00000000   Code   RO         3536    .ARM.Collect$$$$0000000A  mc_w.l(entry8b.o)
    0x0800018c   0x0800018c   0x00000008   Code   RO         3537    .ARM.Collect$$$$0000000B  mc_w.l(entry9a.o)
    0x08000194   0x08000194   0x00000000   Code   RO         3539    .ARM.Collect$$$$0000000D  mc_w.l(entry10a.o)
    0x08000194   0x08000194   0x00000000   Code   RO         3541    .ARM.Collect$$$$0000000F  mc_w.l(entry11a.o)
    0x08000194   0x08000194   0x00000004   Code   RO         3530    .ARM.Collect$$$$00002712  mc_w.l(entry2.o)
    0x08000198   0x08000198   0x00000024   Code   RO          736    .text               startup_at32f407vgt7.o
    0x080001bc   0x080001bc   0x00000024   Code   RO         3260    .text               mc_w.l(memcpya.o)
    0x080001e0   0x080001e0   0x00000024   Code   RO         3262    .text               mc_w.l(memseta.o)
    0x08000204   0x08000204   0x0000001a   Code   RO         3264    .text               mc_w.l(memcmp.o)
    0x0800021e   0x0800021e   0x00000062   Code   RO         3546    .text               mc_w.l(uldiv.o)
    0x08000280   0x08000280   0x00000024   Code   RO         3559    .text               mc_w.l(init.o)
    0x080002a4   0x080002a4   0x0000001e   Code   RO         3561    .text               mc_w.l(llshl.o)
    0x080002c2   0x080002c2   0x00000020   Code   RO         3563    .text               mc_w.l(llushr.o)
    0x080002e2   0x080002e2   0x00000056   Code   RO         3577    .text               mc_w.l(__dczerorl2.o)
    0x08000338   0x08000338   0x00000040   Code   RO          579    i.AT32_BUTTON_Init  at32_board.o
    0x08000378   0x08000378   0x00000038   Code   RO          582    i.AT32_Board_Init   at32_board.o
    0x080003b0   0x080003b0   0x00000048   Code   RO          583    i.AT32_LEDn_Init    at32_board.o
    0x080003f8   0x080003f8   0x00000028   Code   RO          584    i.AT32_LEDn_OFF     at32_board.o
    0x08000420   0x08000420   0x00000028   Code   RO          585    i.AT32_LEDn_ON      at32_board.o
    0x08000448   0x08000448   0x000000f8   Code   RO          333    i.BSP_Init          bsp.o
    0x08000540   0x08000540   0x00000004   Code   RO          443    i.BusFault_Handler  at32f4xx_it.o
    0x08000544   0x08000544   0x0000002c   Code   RO         1831    i.CanSleep          mg_BLEpair_lib_m3.lib(hwtest.o)
    0x08000570   0x08000570   0x00000094   Code   RO          533    i.CheckComPortInData  retarget.o
    0x08000604   0x08000604   0x0000002c   Code   RO         2368    i.CheckMcuTimerForRcCal  mg_BLEpair_lib_m3.lib(fsm_adv_generic.o)
    0x08000630   0x08000630   0x00000048   Code   RO         2922    i.ConnUpdate        mg_BLEpair_lib_m3.lib(fsm_sconn.o)
    0x08000678   0x08000678   0x00000078   Code   RO          156    i.ConnectStausUpdate  app.o
    0x080006f0   0x080006f0   0x00000018   Code   RO         2812    i.Convert2BigLittleEndian  mg_BLEpair_lib_m3.lib(sm.o)
    0x08000708   0x08000708   0x00000002   Code   RO          444    i.DebugMon_Handler  at32f4xx_it.o
    0x0800070a   0x0800070a   0x00000002   PAD
    0x0800070c   0x0800070c   0x0000004c   Code   RO          588    i.Delay_init        at32_board.o
    0x08000758   0x08000758   0x00000014   Code   RO         2369    i.DoRcConvert_HF_LF_COEF  mg_BLEpair_lib_m3.lib(fsm_adv_generic.o)
    0x0800076c   0x0800076c   0x00000028   Code   RO         2370    i.DoRcConvert_LF_AMPLE  mg_BLEpair_lib_m3.lib(fsm_adv_generic.o)
    0x08000794   0x08000794   0x0000001c   Code   RO          445    i.EXTI15_10_IRQHandler  at32f4xx_it.o
    0x080007b0   0x080007b0   0x0000000c   Code   RO          886    i.EXTI_ClearIntPendingBit  at32f4xx_exti.o
    0x080007bc   0x080007bc   0x00000028   Code   RO          889    i.EXTI_GetIntStatus  at32f4xx_exti.o
    0x080007e4   0x080007e4   0x00000094   Code   RO          890    i.EXTI_Init         at32f4xx_exti.o
    0x08000878   0x08000878   0x00000040   Code   RO          745    i.GPIO_EXTILineConfig  at32f4xx_gpio.o
    0x080008b8   0x080008b8   0x00000116   Code   RO          748    i.GPIO_Init         at32f4xx_gpio.o
    0x080009ce   0x080009ce   0x00000002   PAD
    0x080009d0   0x080009d0   0x00000570   Code   RO          752    i.GPIO_PinsRemapConfig  at32f4xx_gpio.o
    0x08000f40   0x08000f40   0x00000012   Code   RO          754    i.GPIO_ReadInputDataBit  at32f4xx_gpio.o
    0x08000f52   0x08000f52   0x00000004   Code   RO          758    i.GPIO_ResetBits    at32f4xx_gpio.o
    0x08000f56   0x08000f56   0x00000004   Code   RO          759    i.GPIO_SetBits      at32f4xx_gpio.o
    0x08000f5a   0x08000f5a   0x00000010   Code   RO          760    i.GPIO_StructInit   at32f4xx_gpio.o
    0x08000f6a   0x08000f6a   0x00000002   PAD
    0x08000f6c   0x08000f6c   0x00000050   Code   RO         2320    i.GenerateTxQueue   mg_BLEpair_lib_m3.lib(slave_dispatch.o)
    0x08000fbc   0x08000fbc   0x0000000c   Code   RO         2371    i.GetAdvCh          mg_BLEpair_lib_m3.lib(fsm_adv_generic.o)
    0x08000fc8   0x08000fc8   0x0000000c   Code   RO         2372    i.GetAdvEnable      mg_BLEpair_lib_m3.lib(fsm_adv_generic.o)
    0x08000fd4   0x08000fd4   0x00000004   Code   RO          157    i.GetCharListDim    app.o
    0x08000fd8   0x08000fd8   0x0000000c   Code   RO          158    i.GetConnectedStatus  app.o
    0x08000fe4   0x08000fe4   0x0000000a   Code   RO          159    i.GetPrimaryServiceHandle  app.o
    0x08000fee   0x08000fee   0x00000002   PAD
    0x08000ff0   0x08000ff0   0x0000000c   Code   RO          446    i.GetSysTickCount   at32f4xx_it.o
    0x08000ffc   0x08000ffc   0x00000004   Code   RO          447    i.HardFault_Handler  at32f4xx_it.o
    0x08001000   0x08001000   0x0000000c   Code   RO          953    i.IWDG_KeyRegWrite  at32f4xx_iwdg.o
    0x0800100c   0x0800100c   0x00000010   Code   RO          954    i.IWDG_ReloadCounter  at32f4xx_iwdg.o
    0x0800101c   0x0800101c   0x0000000c   Code   RO          955    i.IWDG_SetPrescaler  at32f4xx_iwdg.o
    0x08001028   0x08001028   0x0000000c   Code   RO          956    i.IWDG_SetReload    at32f4xx_iwdg.o
    0x08001034   0x08001034   0x00000002   Code   RO          334    i.IrqMcuGotoSleepAndWakeup  bsp.o
    0x08001036   0x08001036   0x00000002   PAD
    0x08001038   0x08001038   0x0000001c   Code   RO          335    i.IsIrqEnabled      bsp.o
    0x08001054   0x08001054   0x00000024   Code   RO         1832    i.IsSwTimeOut       mg_BLEpair_lib_m3.lib(hwtest.o)
    0x08001078   0x08001078   0x00000016   Code   RO          336    i.LED_ONOFF         bsp.o
    0x0800108e   0x0800108e   0x00000002   Code   RO          337    i.McuGotoSleepAndWakeup  bsp.o
    0x08001090   0x08001090   0x00000004   Code   RO          448    i.MemManage_Handler  at32f4xx_it.o
    0x08001094   0x08001094   0x00000002   Code   RO          449    i.NMI_Handler       at32f4xx_it.o
    0x08001096   0x08001096   0x00000002   PAD
    0x08001098   0x08001098   0x00000070   Code   RO         1420    i.NVIC_Init         misc.o
    0x08001108   0x08001108   0x00000002   Code   RO          450    i.PendSV_Handler    at32f4xx_it.o
    0x0800110a   0x0800110a   0x00000002   PAD
    0x0800110c   0x0800110c   0x00000020   Code   RO         1010    i.RCC_APB1PeriphClockCmd  at32f4xx_rcc.o
    0x0800112c   0x0800112c   0x00000020   Code   RO         1013    i.RCC_APB2PeriphClockCmd  at32f4xx_rcc.o
    0x0800114c   0x0800114c   0x00000148   Code   RO         1019    i.RCC_GetClocksFreq  at32f4xx_rcc.o
    0x08001294   0x08001294   0x00000058   Code   RO         3056    i.ReMConnect        mg_BLEpair_lib_m3.lib(fsm_mconn_sleep.o)
    0x080012ec   0x080012ec   0x00000078   Code   RO         2925    i.ReSConnect        mg_BLEpair_lib_m3.lib(fsm_sconn.o)
    0x08001364   0x08001364   0x0000004a   Code   RO         2612    i.SIG_CommandRej    mg_BLEpair_lib_m3.lib(l2cap.o)
    0x080013ae   0x080013ae   0x00000002   PAD
    0x080013b0   0x080013b0   0x00000014   Code   RO          338    i.SPI_CS_Disable_   bsp.o
    0x080013c4   0x080013c4   0x00000014   Code   RO          339    i.SPI_CS_Enable_    bsp.o
    0x080013d8   0x080013d8   0x000000ac   Code   RO          340    i.SPI_Config        bsp.o
    0x08001484   0x08001484   0x00000018   Code   RO         1268    i.SPI_DefaultInitParaConfig  at32f4xx_spi.o
    0x0800149c   0x0800149c   0x00000018   Code   RO         1269    i.SPI_Enable        at32f4xx_spi.o
    0x080014b4   0x080014b4   0x00000012   Code   RO         1277    i.SPI_I2S_GetFlagStatus  at32f4xx_spi.o
    0x080014c6   0x080014c6   0x00000006   Code   RO         1281    i.SPI_I2S_RxData    at32f4xx_spi.o
    0x080014cc   0x080014cc   0x00000004   Code   RO         1282    i.SPI_I2S_TxData    at32f4xx_spi.o
    0x080014d0   0x080014d0   0x0000005a   Code   RO         1283    i.SPI_Init          at32f4xx_spi.o
    0x0800152a   0x0800152a   0x0000003c   Code   RO          341    i.SPI_ReadBuf       bsp.o
    0x08001566   0x08001566   0x0000003a   Code   RO          342    i.SPI_WriteBuf      bsp.o
    0x080015a0   0x080015a0   0x00000038   Code   RO          343    i.SPI_WriteRead     bsp.o
    0x080015d8   0x080015d8   0x00000002   Code   RO          451    i.SVC_Handler       at32f4xx_it.o
    0x080015da   0x080015da   0x00000002   PAD
    0x080015dc   0x080015dc   0x0000000c   Code   RO         2321    i.SaveCurrentHdr    mg_BLEpair_lib_m3.lib(slave_dispatch.o)
    0x080015e8   0x080015e8   0x00000010   Code   RO         2633    i.SaveInitAddr      mg_BLEpair_lib_m3.lib(ll_control.o)
    0x080015f8   0x080015f8   0x00000020   Code   RO         2521    i.ScanDataSave      mg_BLEpair_lib_m3.lib(fsm_scan.o)
    0x08001618   0x08001618   0x0000000c   Code   RO         1833    i.SetBleIntRunningMode  mg_BLEpair_lib_m3.lib(hwtest.o)
    0x08001624   0x08001624   0x00000010   Code   RO         1835    i.SetMcuSleepFlag   mg_BLEpair_lib_m3.lib(hwtest.o)
    0x08001634   0x08001634   0x00000018   Code   RO         1836    i.SetSwTimer        mg_BLEpair_lib_m3.lib(hwtest.o)
    0x0800164c   0x0800164c   0x00000008   Code   RO          690    i.SetSysClock       system_at32f4xx.o
    0x08001654   0x08001654   0x000000d8   Code   RO          691    i.SetSysClockTo48MHSI  system_at32f4xx.o
    0x0800172c   0x0800172c   0x00000018   Code   RO         2374    i.StartBBTimerForRcCal  mg_BLEpair_lib_m3.lib(fsm_adv_generic.o)
    0x08001744   0x08001744   0x00000028   Code   RO         1424    i.SysTick_CLKSourceConfig  misc.o
    0x0800176c   0x0800176c   0x00000018   Code   RO          452    i.SysTick_Handler   at32f4xx_it.o
    0x08001784   0x08001784   0x00000084   Code   RO          693    i.SystemInit        system_at32f4xx.o
    0x08001808   0x08001808   0x00000010   Code   RO         2485    i.Tx_len            mg_BLEpair_lib_m3.lib(fsm_base.o)
    0x08001818   0x08001818   0x00000098   Code   RO          592    i.UART_Print_Init   at32_board.o
    0x080018b0   0x080018b0   0x0000009c   Code   RO          534    i.USART2_IRQHandler  retarget.o
    0x0800194c   0x0800194c   0x00000018   Code   RO         1472    i.USART_Cmd         at32f4xx_usart.o
    0x08001964   0x08001964   0x0000001a   Code   RO         1474    i.USART_GetFlagStatus  at32f4xx_usart.o
    0x0800197e   0x0800197e   0x00000054   Code   RO         1475    i.USART_GetITStatus  at32f4xx_usart.o
    0x080019d2   0x080019d2   0x0000004a   Code   RO         1477    i.USART_INTConfig   at32f4xx_usart.o
    0x08001a1c   0x08001a1c   0x000000d8   Code   RO         1478    i.USART_Init        at32f4xx_usart.o
    0x08001af4   0x08001af4   0x0000000a   Code   RO         1485    i.USART_ReceiveData  at32f4xx_usart.o
    0x08001afe   0x08001afe   0x00000008   Code   RO         1489    i.USART_SendData    at32f4xx_usart.o
    0x08001b06   0x08001b06   0x00000018   Code   RO         1495    i.USART_StructInit  at32f4xx_usart.o
    0x08001b1e   0x08001b1e   0x00000002   PAD
    0x08001b20   0x08001b20   0x000000a8   Code   RO          346    i.Uart_Init         bsp.o
    0x08001bc8   0x08001bc8   0x00000004   Code   RO          453    i.UsageFault_Handler  at32f4xx_it.o
    0x08001bcc   0x08001bcc   0x00000064   Code   RO          535    i.UsrProcCallback   retarget.o
    0x08001c30   0x08001c30   0x00000020   Code   RO         3475    i.__0printf$8       mc_w.l(printf8.o)
    0x08001c50   0x08001c50   0x0000000e   Code   RO         3571    i.__scatterload_copy  mc_w.l(handlers.o)
    0x08001c5e   0x08001c5e   0x00000002   Code   RO         3572    i.__scatterload_null  mc_w.l(handlers.o)
    0x08001c60   0x08001c60   0x0000000e   Code   RO         3573    i.__scatterload_zeroinit  mc_w.l(handlers.o)
    0x08001c6e   0x08001c6e   0x00000002   PAD
    0x08001c70   0x08001c70   0x00000410   Code   RO         3482    i._printf_core      mc_w.l(printf8.o)
    0x08002080   0x08002080   0x00000024   Code   RO         3483    i._printf_post_padding  mc_w.l(printf8.o)
    0x080020a4   0x080020a4   0x0000002e   Code   RO         3484    i._printf_pre_padding  mc_w.l(printf8.o)
    0x080020d2   0x080020d2   0x00000002   PAD
    0x080020d4   0x080020d4   0x00000028   Code   RO         2375    i.adv_generic_onRxAA  mg_BLEpair_lib_m3.lib(fsm_adv_generic.o)
    0x080020fc   0x080020fc   0x00000090   Code   RO         2376    i.adv_generic_onRxPDU  mg_BLEpair_lib_m3.lib(fsm_adv_generic.o)
    0x0800218c   0x0800218c   0x00000134   Code   RO         2377    i.adv_generic_onSleep  mg_BLEpair_lib_m3.lib(fsm_adv_generic.o)
    0x080022c0   0x080022c0   0x0000002c   Code   RO         2378    i.adv_generic_onStart  mg_BLEpair_lib_m3.lib(fsm_adv_generic.o)
    0x080022ec   0x080022ec   0x00000038   Code   RO         2379    i.adv_generic_onTxStarted  mg_BLEpair_lib_m3.lib(fsm_adv_generic.o)
    0x08002324   0x08002324   0x0000007c   Code   RO         2380    i.adv_generic_onWakeup  mg_BLEpair_lib_m3.lib(fsm_adv_generic.o)
    0x080023a0   0x080023a0   0x00000394   Code   RO         2814    i.aes_encr          mg_BLEpair_lib_m3.lib(sm.o)
    0x08002734   0x08002734   0x00000006   Code   RO          160    i.aes_encrypt_HW    app.o
    0x0800273a   0x0800273a   0x00000002   PAD
    0x0800273c   0x0800273c   0x00000044   Code   RO         2926    i.applyConnUpdate   mg_BLEpair_lib_m3.lib(fsm_sconn.o)
    0x08002780   0x08002780   0x00000084   Code   RO         2927    i.apply_connPara    mg_BLEpair_lib_m3.lib(fsm_sconn.o)
    0x08002804   0x08002804   0x00000040   Code   RO         1659    i.att_ErrorFd_eCode  mg_BLEpair_lib_m3.lib(att.o)
    0x08002844   0x08002844   0x0000002c   Code   RO         1661    i.att_exMtuReq      mg_BLEpair_lib_m3.lib(att.o)
    0x08002870   0x08002870   0x00000006   Code   RO         1662    i.att_notFd         mg_BLEpair_lib_m3.lib(att.o)
    0x08002876   0x08002876   0x00000004   Code   RO         1663    i.att_rsp           mg_BLEpair_lib_m3.lib(att.o)
    0x0800287a   0x0800287a   0x00000086   Code   RO         1664    i.att_server_findByType  mg_BLEpair_lib_m3.lib(att.o)
    0x08002900   0x08002900   0x000000a0   Code   RO         1665    i.att_server_findIn  mg_BLEpair_lib_m3.lib(att.o)
    0x080029a0   0x080029a0   0x0000005e   Code   RO         1666    i.att_server_rd     mg_BLEpair_lib_m3.lib(att.o)
    0x080029fe   0x080029fe   0x00000002   PAD
    0x08002a00   0x08002a00   0x00000040   Code   RO          161    i.att_server_rdByGrType  app.o
    0x08002a40   0x08002a40   0x00000072   Code   RO         1668    i.att_server_rdByGrTypeRspPrimaryService  mg_BLEpair_lib_m3.lib(att.o)
    0x08002ab2   0x08002ab2   0x00000002   PAD
    0x08002ab4   0x08002ab4   0x0000026c   Code   RO         1669    i.att_server_rdByType  mg_BLEpair_lib_m3.lib(att.o)
    0x08002d20   0x08002d20   0x00000034   Code   RO         2381    i.bb_DoRcCal        mg_BLEpair_lib_m3.lib(fsm_adv_generic.o)
    0x08002d54   0x08002d54   0x00000004   Code   RO         2382    i.bb_advCalTimerIrq  mg_BLEpair_lib_m3.lib(fsm_adv_generic.o)
    0x08002d58   0x08002d58   0x0000002c   Code   RO         2383    i.bb_advGenericSetup  mg_BLEpair_lib_m3.lib(fsm_adv_generic.o)
    0x08002d84   0x08002d84   0x00000014   Code   RO         2384    i.bb_advGenericStart  mg_BLEpair_lib_m3.lib(fsm_adv_generic.o)
    0x08002d98   0x08002d98   0x00000024   Code   RO         2486    i.bb_getConnState   mg_BLEpair_lib_m3.lib(fsm_base.o)
    0x08002dbc   0x08002dbc   0x000000a0   Code   RO         3058    i.bb_mconnStart     mg_BLEpair_lib_m3.lib(fsm_mconn_sleep.o)
    0x08002e5c   0x08002e5c   0x0000002c   Code   RO         2522    i.bb_scanSetup      mg_BLEpair_lib_m3.lib(fsm_scan.o)
    0x08002e88   0x08002e88   0x00000014   Code   RO         2523    i.bb_scanStart      mg_BLEpair_lib_m3.lib(fsm_scan.o)
    0x08002e9c   0x08002e9c   0x00000090   Code   RO         2928    i.bb_sconnStart     mg_BLEpair_lib_m3.lib(fsm_sconn.o)
    0x08002f2c   0x08002f2c   0x0000000c   Code   RO         2487    i.bb_setConnState   mg_BLEpair_lib_m3.lib(fsm_base.o)
    0x08002f38   0x08002f38   0x00000030   Code   RO         1837    i.ble_nMsRoutine    mg_BLEpair_lib_m3.lib(hwtest.o)
    0x08002f68   0x08002f68   0x00000404   Code   RO         1838    i.ble_run           mg_BLEpair_lib_m3.lib(hwtest.o)
    0x0800336c   0x0800336c   0x0000001c   Code   RO         1840    i.ble_run_interrupt_start  mg_BLEpair_lib_m3.lib(hwtest.o)
    0x08003388   0x08003388   0x00000030   Code   RO         1841    i.ble_set_adv_data  mg_BLEpair_lib_m3.lib(hwtest.o)
    0x080033b8   0x080033b8   0x00000018   Code   RO         1843    i.ble_set_adv_type  mg_BLEpair_lib_m3.lib(hwtest.o)
    0x080033d0   0x080033d0   0x0000003c   Code   RO         2525    i.create_conn       mg_BLEpair_lib_m3.lib(fsm_scan.o)
    0x0800340c   0x0800340c   0x00000058   Code   RO         2241    i.create_node       mg_BLEpair_lib_m3.lib(data_queue.o)
    0x08003464   0x08003464   0x00000010   Code   RO         2637    i.empty_pk          mg_BLEpair_lib_m3.lib(ll_control.o)
    0x08003474   0x08003474   0x000000e0   Code   RO         2815    i.expandKey         mg_BLEpair_lib_m3.lib(sm.o)
    0x08003554   0x08003554   0x00000024   Code   RO          593    i.fputc             at32_board.o
    0x08003578   0x08003578   0x00000012   Code   RO         2816    i.galois_mul2       mg_BLEpair_lib_m3.lib(sm.o)
    0x0800358a   0x0800358a   0x00000002   Code   RO          162    i.gatt_user_send_notify_data_callback  app.o
    0x0800358c   0x0800358c   0x00000010   Code   RO          163    i.getDeviceInfoData  app.o
    0x0800359c   0x0800359c   0x00000014   Code   RO         1847    i.get_ble_version   mg_BLEpair_lib_m3.lib(hwtest.o)
    0x080035b0   0x080035b0   0x0000000c   Code   RO         2931    i.get_current_ch    mg_BLEpair_lib_m3.lib(fsm_sconn.o)
    0x080035bc   0x080035bc   0x0000000c   Code   RO         2242    i.get_node_free     mg_BLEpair_lib_m3.lib(data_queue.o)
    0x080035c8   0x080035c8   0x00000014   Code   RO         2243    i.is_node_empty     mg_BLEpair_lib_m3.lib(data_queue.o)
    0x080035dc   0x080035dc   0x00000018   Code   RO         3136    i.mOpCheck_Start    mg_BLEpair_lib_m3.lib(master_dispatch.o)
    0x080035f4   0x080035f4   0x00000034   Code   RO         3137    i.m_GenerateTxQueue  mg_BLEpair_lib_m3.lib(master_dispatch.o)
    0x08003628   0x08003628   0x00000048   Code   RO         3138    i.m_RdByGroupTypeRsp  mg_BLEpair_lib_m3.lib(master_dispatch.o)
    0x08003670   0x08003670   0x00000054   Code   RO         3139    i.m_RdByTypeChar    mg_BLEpair_lib_m3.lib(master_dispatch.o)
    0x080036c4   0x080036c4   0x00000038   Code   RO         3140    i.m_RdByTypeRsp     mg_BLEpair_lib_m3.lib(master_dispatch.o)
    0x080036fc   0x080036fc   0x00000010   Code   RO         3141    i.m_UpdateNESN      mg_BLEpair_lib_m3.lib(master_dispatch.o)
    0x0800370c   0x0800370c   0x00000010   Code   RO         3142    i.m_UpdateSN        mg_BLEpair_lib_m3.lib(master_dispatch.o)
    0x0800371c   0x0800371c   0x00000020   Code   RO         3143    i.m_attErrorRsp     mg_BLEpair_lib_m3.lib(master_dispatch.o)
    0x0800373c   0x0800373c   0x00000032   Code   RO         3144    i.m_att_Confirmation  mg_BLEpair_lib_m3.lib(master_dispatch.o)
    0x0800376e   0x0800376e   0x0000004a   Code   RO         3147    i.m_att_notFd       mg_BLEpair_lib_m3.lib(master_dispatch.o)
    0x080037b8   0x080037b8   0x00000052   Code   RO         3148    i.m_att_readGrpBypService  mg_BLEpair_lib_m3.lib(master_dispatch.o)
    0x0800380a   0x0800380a   0x00000002   PAD
    0x0800380c   0x0800380c   0x00000054   Code   RO         3149    i.m_att_readReq     mg_BLEpair_lib_m3.lib(master_dispatch.o)
    0x08003860   0x08003860   0x00000058   Code   RO         3150    i.m_opcodeCheck     mg_BLEpair_lib_m3.lib(master_dispatch.o)
    0x080038b8   0x080038b8   0x000000bc   Code   RO         3151    i.m_opcodeCheck_parser  mg_BLEpair_lib_m3.lib(master_dispatch.o)
    0x08003974   0x08003974   0x00000104   Code   RO            4    i.main              main.o
    0x08003a78   0x08003a78   0x0000004c   Code   RO         3061    i.mconn_onChannelSelection  mg_BLEpair_lib_m3.lib(fsm_mconn_sleep.o)
    0x08003ac4   0x08003ac4   0x0000001c   Code   RO         3062    i.mconn_onRxAA      mg_BLEpair_lib_m3.lib(fsm_mconn_sleep.o)
    0x08003ae0   0x08003ae0   0x00000020   Code   RO         3063    i.mconn_onRxPDU     mg_BLEpair_lib_m3.lib(fsm_mconn_sleep.o)
    0x08003b00   0x08003b00   0x000000f4   Code   RO         3064    i.mconn_onSleep     mg_BLEpair_lib_m3.lib(fsm_mconn_sleep.o)
    0x08003bf4   0x08003bf4   0x0000005c   Code   RO         3065    i.mconn_onStart     mg_BLEpair_lib_m3.lib(fsm_mconn_sleep.o)
    0x08003c50   0x08003c50   0x0000003c   Code   RO         3066    i.mconn_onTxStarted  mg_BLEpair_lib_m3.lib(fsm_mconn_sleep.o)
    0x08003c8c   0x08003c8c   0x00000024   Code   RO         3067    i.mconn_onWakeup    mg_BLEpair_lib_m3.lib(fsm_mconn_sleep.o)
    0x08003cb0   0x08003cb0   0x0000000e   Code   RO         1974    i.mg_activate       mg_BLEpair_lib_m3.lib(macrogiga_driver.o)
    0x08003cbe   0x08003cbe   0x00000002   PAD
    0x08003cc0   0x08003cc0   0x00000028   Code   RO         2817    i.mg_aes_encrypt    mg_BLEpair_lib_m3.lib(sm.o)
    0x08003ce8   0x08003ce8   0x00000004   Code   RO         1975    i.mg_readBuf        mg_BLEpair_lib_m3.lib(macrogiga_driver.o)
    0x08003cec   0x08003cec   0x00000006   Code   RO         1976    i.mg_readReg        mg_BLEpair_lib_m3.lib(macrogiga_driver.o)
    0x08003cf2   0x08003cf2   0x00000008   Code   RO         1977    i.mg_writeBuf       mg_BLEpair_lib_m3.lib(macrogiga_driver.o)
    0x08003cfa   0x08003cfa   0x00000010   Code   RO         1978    i.mg_writeReg       mg_BLEpair_lib_m3.lib(macrogiga_driver.o)
    0x08003d0a   0x08003d0a   0x00000010   Code   RO         2245    i.queue_empty       mg_BLEpair_lib_m3.lib(data_queue.o)
    0x08003d1a   0x08003d1a   0x00000002   PAD
    0x08003d1c   0x08003d1c   0x00000014   Code   RO         2247    i.queue_init        mg_BLEpair_lib_m3.lib(data_queue.o)
    0x08003d30   0x08003d30   0x00000018   Code   RO         2248    i.queue_pop         mg_BLEpair_lib_m3.lib(data_queue.o)
    0x08003d48   0x08003d48   0x00000020   Code   RO         2249    i.queue_push        mg_BLEpair_lib_m3.lib(data_queue.o)
    0x08003d68   0x08003d68   0x00000008   Code   RO         1979    i.radio_clearIRQ    mg_BLEpair_lib_m3.lib(macrogiga_driver.o)
    0x08003d70   0x08003d70   0x0000009a   Code   RO         1980    i.radio_do_cal      mg_BLEpair_lib_m3.lib(macrogiga_driver.o)
    0x08003e0a   0x08003e0a   0x00000022   Code   RO         1981    i.radio_do_cal_check_result  mg_BLEpair_lib_m3.lib(macrogiga_driver.o)
    0x08003e2c   0x08003e2c   0x00000028   Code   RO         1983    i.radio_do_cal_start  mg_BLEpair_lib_m3.lib(macrogiga_driver.o)
    0x08003e54   0x08003e54   0x000000a4   Code   RO         1984    i.radio_do_cal_step_check  mg_BLEpair_lib_m3.lib(macrogiga_driver.o)
    0x08003ef8   0x08003ef8   0x0000003e   Code   RO         1986    i.radio_getClock    mg_BLEpair_lib_m3.lib(macrogiga_driver.o)
    0x08003f36   0x08003f36   0x00000026   Code   RO         1987    i.radio_getHClock   mg_BLEpair_lib_m3.lib(macrogiga_driver.o)
    0x08003f5c   0x08003f5c   0x00000038   Code   RO         1988    i.radio_getHdr      mg_BLEpair_lib_m3.lib(macrogiga_driver.o)
    0x08003f94   0x08003f94   0x00000098   Code   RO         1989    i.radio_getPdu      mg_BLEpair_lib_m3.lib(macrogiga_driver.o)
    0x0800402c   0x0800402c   0x000001b0   Code   RO         1990    i.radio_initBle     mg_BLEpair_lib_m3.lib(macrogiga_driver.o)
    0x080041dc   0x080041dc   0x00000014   Code   RO         1993    i.radio_readIRQ     mg_BLEpair_lib_m3.lib(macrogiga_driver.o)
    0x080041f0   0x080041f0   0x00000026   Code   RO         1995    i.radio_setAccessCode  mg_BLEpair_lib_m3.lib(macrogiga_driver.o)
    0x08004216   0x08004216   0x00000018   Code   RO         1996    i.radio_setAdvHeader  mg_BLEpair_lib_m3.lib(macrogiga_driver.o)
    0x0800422e   0x0800422e   0x0000000a   Code   RO         1997    i.radio_setAdvPayload  mg_BLEpair_lib_m3.lib(macrogiga_driver.o)
    0x08004238   0x08004238   0x0000000e   Code   RO         2000    i.radio_setChannel  mg_BLEpair_lib_m3.lib(macrogiga_driver.o)
    0x08004246   0x08004246   0x00000020   Code   RO         2001    i.radio_setCrcInit  mg_BLEpair_lib_m3.lib(macrogiga_driver.o)
    0x08004266   0x08004266   0x00000018   Code   RO         2002    i.radio_setIrqMask  mg_BLEpair_lib_m3.lib(macrogiga_driver.o)
    0x0800427e   0x0800427e   0x00000036   Code   RO         2003    i.radio_setMode     mg_BLEpair_lib_m3.lib(macrogiga_driver.o)
    0x080042b4   0x080042b4   0x00000018   Code   RO         2004    i.radio_setPaGain   mg_BLEpair_lib_m3.lib(macrogiga_driver.o)
    0x080042cc   0x080042cc   0x00000032   Code   RO         2006    i.radio_setScanAInitA  mg_BLEpair_lib_m3.lib(macrogiga_driver.o)
    0x080042fe   0x080042fe   0x0000001e   Code   RO         2007    i.radio_setStartTime  mg_BLEpair_lib_m3.lib(macrogiga_driver.o)
    0x0800431c   0x0800431c   0x0000002a   Code   RO         2008    i.radio_setTimeout  mg_BLEpair_lib_m3.lib(macrogiga_driver.o)
    0x08004346   0x08004346   0x0000000a   Code   RO         2009    i.radio_setTxPayload  mg_BLEpair_lib_m3.lib(macrogiga_driver.o)
    0x08004350   0x08004350   0x0000001c   Code   RO         2010    i.radio_setTxPduHeader  mg_BLEpair_lib_m3.lib(macrogiga_driver.o)
    0x0800436c   0x0800436c   0x00000024   Code   RO         2011    i.radio_setWakeupTime  mg_BLEpair_lib_m3.lib(macrogiga_driver.o)
    0x08004390   0x08004390   0x00000022   Code   RO         2013    i.radio_sleep       mg_BLEpair_lib_m3.lib(macrogiga_driver.o)
    0x080043b2   0x080043b2   0x00000008   Code   RO         2015    i.radio_wakeup      mg_BLEpair_lib_m3.lib(macrogiga_driver.o)
    0x080043ba   0x080043ba   0x00000002   PAD
    0x080043bc   0x080043bc   0x00000040   Code   RO         2251    i.readQueue         mg_BLEpair_lib_m3.lib(data_queue.o)
    0x080043fc   0x080043fc   0x00000010   Code   RO         2638    i.reset_sm_flags    mg_BLEpair_lib_m3.lib(ll_control.o)
    0x0800440c   0x0800440c   0x00000024   Code   RO         2639    i.restoretxbuf      mg_BLEpair_lib_m3.lib(ll_control.o)
    0x08004430   0x08004430   0x00000018   Code   RO         2322    i.sOpCheck_Start    mg_BLEpair_lib_m3.lib(slave_dispatch.o)
    0x08004448   0x08004448   0x00000002   Code   RO         2640    i.s_llChmReq        mg_BLEpair_lib_m3.lib(ll_control.o)
    0x0800444a   0x0800444a   0x00000002   PAD
    0x0800444c   0x0800444c   0x00000048   Code   RO         2642    i.s_llConnParaRsp   mg_BLEpair_lib_m3.lib(ll_control.o)
    0x08004494   0x08004494   0x000000f4   Code   RO         2643    i.s_llEncReq        mg_BLEpair_lib_m3.lib(ll_control.o)
    0x08004588   0x08004588   0x00000038   Code   RO         2644    i.s_llFea           mg_BLEpair_lib_m3.lib(ll_control.o)
    0x080045c0   0x080045c0   0x00000018   Code   RO         2818    i.s_llSmGetTKType   mg_BLEpair_lib_m3.lib(sm.o)
    0x080045d8   0x080045d8   0x000000b4   Code   RO         2645    i.s_llSmPair        mg_BLEpair_lib_m3.lib(ll_control.o)
    0x0800468c   0x0800468c   0x000000bc   Code   RO         2646    i.s_llSmPairConfirm  mg_BLEpair_lib_m3.lib(ll_control.o)
    0x08004748   0x08004748   0x0000004c   Code   RO         2647    i.s_llSmPairFailed  mg_BLEpair_lib_m3.lib(ll_control.o)
    0x08004794   0x08004794   0x000000d8   Code   RO         2648    i.s_llSmPairRand    mg_BLEpair_lib_m3.lib(ll_control.o)
    0x0800486c   0x0800486c   0x000000d8   Code   RO         2650    i.s_llStartEncRsp   mg_BLEpair_lib_m3.lib(ll_control.o)
    0x08004944   0x08004944   0x0000002c   Code   RO         2651    i.s_llTer           mg_BLEpair_lib_m3.lib(ll_control.o)
    0x08004970   0x08004970   0x00000034   Code   RO         2652    i.s_llTerminate     mg_BLEpair_lib_m3.lib(ll_control.o)
    0x080049a4   0x080049a4   0x00000030   Code   RO         2653    i.s_llUnknownRsp    mg_BLEpair_lib_m3.lib(ll_control.o)
    0x080049d4   0x080049d4   0x00000038   Code   RO         2654    i.s_llVersion       mg_BLEpair_lib_m3.lib(ll_control.o)
    0x08004a0c   0x08004a0c   0x0000006c   Code   RO         2323    i.s_opcodeCheck     mg_BLEpair_lib_m3.lib(slave_dispatch.o)
    0x08004a78   0x08004a78   0x000002e4   Code   RO         2324    i.s_opcodeCheckOld  mg_BLEpair_lib_m3.lib(slave_dispatch.o)
    0x08004d5c   0x08004d5c   0x00000018   Code   RO         2655    i.savetxbuf         mg_BLEpair_lib_m3.lib(ll_control.o)
    0x08004d74   0x08004d74   0x0000003c   Code   RO         2528    i.scan_onRxAA       mg_BLEpair_lib_m3.lib(fsm_scan.o)
    0x08004db0   0x08004db0   0x000000c4   Code   RO         2529    i.scan_onRxPDU      mg_BLEpair_lib_m3.lib(fsm_scan.o)
    0x08004e74   0x08004e74   0x0000005c   Code   RO         2530    i.scan_onSleep      mg_BLEpair_lib_m3.lib(fsm_scan.o)
    0x08004ed0   0x08004ed0   0x0000002c   Code   RO         2531    i.scan_onStart      mg_BLEpair_lib_m3.lib(fsm_scan.o)
    0x08004efc   0x08004efc   0x00000004   Code   RO         2532    i.scan_onTxStarted  mg_BLEpair_lib_m3.lib(fsm_scan.o)
    0x08004f00   0x08004f00   0x00000034   Code   RO         2533    i.scan_onWakeup     mg_BLEpair_lib_m3.lib(fsm_scan.o)
    0x08004f34   0x08004f34   0x00000060   Code   RO         2932    i.sconnConUpdate    mg_BLEpair_lib_m3.lib(fsm_sconn.o)
    0x08004f94   0x08004f94   0x0000002c   Code   RO         2933    i.sconnUpChm        mg_BLEpair_lib_m3.lib(fsm_sconn.o)
    0x08004fc0   0x08004fc0   0x00000004   Code   RO         2935    i.sconn_ReSetLLSupvTimer  mg_BLEpair_lib_m3.lib(fsm_sconn.o)
    0x08004fc4   0x08004fc4   0x0000004c   Code   RO         1671    i.sconn_notifydata  mg_BLEpair_lib_m3.lib(att.o)
    0x08005010   0x08005010   0x00000040   Code   RO         2937    i.sconn_onNumUsedCh  mg_BLEpair_lib_m3.lib(fsm_sconn.o)
    0x08005050   0x08005050   0x00000018   Code   RO         2938    i.sconn_onRxAA      mg_BLEpair_lib_m3.lib(fsm_sconn.o)
    0x08005068   0x08005068   0x000000d4   Code   RO         2939    i.sconn_onRxPDU     mg_BLEpair_lib_m3.lib(fsm_sconn.o)
    0x0800513c   0x0800513c   0x00000268   Code   RO         2940    i.sconn_onSleep     mg_BLEpair_lib_m3.lib(fsm_sconn.o)
    0x080053a4   0x080053a4   0x00000018   Code   RO         2941    i.sconn_onTxStarted  mg_BLEpair_lib_m3.lib(fsm_sconn.o)
    0x080053bc   0x080053bc   0x00000060   Code   RO         2942    i.sconn_onWakeup    mg_BLEpair_lib_m3.lib(fsm_sconn.o)
    0x0800541c   0x0800541c   0x00000002   Code   RO          164    i.ser_execute_write  app.o
    0x0800541e   0x0800541e   0x00000026   Code   RO         1672    i.ser_execute_write_rsp  mg_BLEpair_lib_m3.lib(att.o)
    0x08005444   0x08005444   0x00000070   Code   RO         1673    i.ser_notify_handle  mg_BLEpair_lib_m3.lib(att.o)
    0x080054b4   0x080054b4   0x00000002   Code   RO          165    i.ser_prepare_write  app.o
    0x080054b6   0x080054b6   0x00000056   Code   RO         1674    i.ser_prepare_write_rsp  mg_BLEpair_lib_m3.lib(att.o)
    0x0800550c   0x0800550c   0x00000034   Code   RO          166    i.ser_write_rsp     app.o
    0x08005540   0x08005540   0x0000002c   Code   RO         1675    i.ser_write_rsp_pkt  mg_BLEpair_lib_m3.lib(att.o)
    0x0800556c   0x0800556c   0x00000002   Code   RO          167    i.server_blob_rd_rsp  app.o
    0x0800556e   0x0800556e   0x00000032   Code   RO          168    i.server_rd_rsp     app.o
    0x080055a0   0x080055a0   0x00000010   Code   RO         3152    i.show_character_hd_info  mg_BLEpair_lib_m3.lib(master_dispatch.o)
    0x080055b0   0x080055b0   0x000000e4   Code   RO         2819    i.sm_LL_Dec_m2s     mg_BLEpair_lib_m3.lib(sm.o)
    0x08005694   0x08005694   0x0000000c   Code   RO         2658    i.sm_SetAddrType    mg_BLEpair_lib_m3.lib(ll_control.o)
    0x080056a0   0x080056a0   0x00000038   Code   RO         2820    i.sm_Update_SK_IV   mg_BLEpair_lib_m3.lib(sm.o)
    0x080056d8   0x080056d8   0x00000258   Code   RO         2821    i.sm_cal_MIC_Enc_s2m  mg_BLEpair_lib_m3.lib(sm.o)
    0x08005930   0x08005930   0x00000094   Code   RO         2822    i.sm_func_c1        mg_BLEpair_lib_m3.lib(sm.o)
    0x080059c4   0x080059c4   0x00000028   Code   RO         2823    i.sm_func_s1        mg_BLEpair_lib_m3.lib(sm.o)
    0x080059ec   0x080059ec   0x00000028   Code   RO         2824    i.sm_function_d1    mg_BLEpair_lib_m3.lib(sm.o)
    0x08005a14   0x08005a14   0x00000036   Code   RO         2825    i.sm_function_dm    mg_BLEpair_lib_m3.lib(sm.o)
    0x08005a4a   0x08005a4a   0x00000002   PAD
    0x08005a4c   0x08005a4c   0x0000008c   Code   RO         2826    i.sm_generate_EDIV_Rand_LTK  mg_BLEpair_lib_m3.lib(sm.o)
    0x08005ad8   0x08005ad8   0x0000005c   Code   RO         2827    i.sm_generate_LTK   mg_BLEpair_lib_m3.lib(sm.o)
    0x08005b34   0x08005b34   0x00000040   Code   RO         2828    i.sm_parser         mg_BLEpair_lib_m3.lib(sm.o)
    0x08005b74   0x08005b74   0x00000034   Code   RO         2829    i.sm_process_pdu    mg_BLEpair_lib_m3.lib(sm.o)
    0x08005ba8   0x08005ba8   0x0000002c   Code   RO         1848    i.test_adv_generic  mg_BLEpair_lib_m3.lib(hwtest.o)
    0x08005bd4   0x08005bd4   0x00000038   Code   RO         1849    i.test_scan         mg_BLEpair_lib_m3.lib(hwtest.o)
    0x08005c0c   0x08005c0c   0x0000002a   Code   RO         2659    i.txRsp             mg_BLEpair_lib_m3.lib(ll_control.o)
    0x08005c36   0x08005c36   0x00000002   PAD
    0x08005c38   0x08005c38   0x00000088   Code   RO         1850    i.update_adv_generic_para  mg_BLEpair_lib_m3.lib(hwtest.o)
    0x08005cc0   0x08005cc0   0x0000004e   Data   RO          169    .constdata          app.o
    0x08005d0e   0x08005d0e   0x00000010   Data   RO         1045    .constdata          at32f4xx_rcc.o
    0x08005d1e   0x08005d1e   0x00000002   PAD
    0x08005d20   0x08005d20   0x00000004   Data   RO         2326    .constdata          mg_BLEpair_lib_m3.lib(slave_dispatch.o)
    0x08005d24   0x08005d24   0x0000001c   Data   RO         2387    .constdata          mg_BLEpair_lib_m3.lib(fsm_adv_generic.o)
    0x08005d40   0x08005d40   0x0000001c   Data   RO         2535    .constdata          mg_BLEpair_lib_m3.lib(fsm_scan.o)
    0x08005d5c   0x08005d5c   0x0000000c   Data   RO         2662    .constdata          mg_BLEpair_lib_m3.lib(ll_control.o)
    0x08005d68   0x08005d68   0x0000012b   Data   RO         2831    .constdata          mg_BLEpair_lib_m3.lib(sm.o)
    0x08005e93   0x08005e93   0x00000001   PAD
    0x08005e94   0x08005e94   0x0000001c   Data   RO         2945    .constdata          mg_BLEpair_lib_m3.lib(fsm_sconn.o)
    0x08005eb0   0x08005eb0   0x0000001c   Data   RO         3069    .constdata          mg_BLEpair_lib_m3.lib(fsm_mconn_sleep.o)
    0x08005ecc   0x08005ecc   0x00000004   Data   RO         3155    .constdata          mg_BLEpair_lib_m3.lib(master_dispatch.o)
    0x08005ed0   0x08005ed0   0x00000020   Data   RO         3569    Region$$Table       anon$$obj.o


    Execution Region RW_IRAM1 (Exec base: 0x20000000, Load base: 0x08005ef0, Size: 0x00000d30, Max: 0x00038000, ABSOLUTE, COMPRESSED[0x000000bc])

    Exec Addr    Load Addr    Size         Type   Attr      Idx    E Section Name        Object

    0x20000000   COMPRESSED   0x00000003   Data   RW            5    .data               main.o
    0x20000003   COMPRESSED   0x00000001   PAD
    0x20000004   COMPRESSED   0x0000000f   Data   RW          170    .data               app.o
    0x20000013   COMPRESSED   0x00000001   PAD
    0x20000014   COMPRESSED   0x00000014   Data   RW          348    .data               bsp.o
    0x20000028   COMPRESSED   0x00000004   Data   RW          454    .data               at32f4xx_it.o
    0x2000002c   COMPRESSED   0x00000007   Data   RW          538    .data               retarget.o
    0x20000033   COMPRESSED   0x00000001   PAD
    0x20000034   COMPRESSED   0x00000045   Data   RW          594    .data               at32_board.o
    0x20000079   COMPRESSED   0x00000003   PAD
    0x2000007c   COMPRESSED   0x00000014   Data   RW          694    .data               system_at32f4xx.o
    0x20000090   COMPRESSED   0x0000000c   Data   RW         1677    .data               mg_BLEpair_lib_m3.lib(att.o)
    0x2000009c   COMPRESSED   0x00000058   Data   RW         1853    .data               mg_BLEpair_lib_m3.lib(hwtest.o)
    0x200000f4   COMPRESSED   0x00000006   Data   RW         1854    .data               mg_BLEpair_lib_m3.lib(hwtest.o)
    0x200000fa   COMPRESSED   0x00000005   Data   RW         2016    .data               mg_BLEpair_lib_m3.lib(macrogiga_driver.o)
    0x200000ff   COMPRESSED   0x00000001   PAD
    0x20000100   COMPRESSED   0x00000008   Data   RW         2254    .data               mg_BLEpair_lib_m3.lib(data_queue.o)
    0x20000108   COMPRESSED   0x0000003d   Data   RW         2327    .data               mg_BLEpair_lib_m3.lib(slave_dispatch.o)
    0x20000145   COMPRESSED   0x00000003   PAD
    0x20000148   COMPRESSED   0x00000040   Data   RW         2388    .data               mg_BLEpair_lib_m3.lib(fsm_adv_generic.o)
    0x20000188   COMPRESSED   0x00000004   Data   RW         2488    .data               mg_BLEpair_lib_m3.lib(fsm_base.o)
    0x2000018c   COMPRESSED   0x00000004   Data   RW         2489    .data               mg_BLEpair_lib_m3.lib(fsm_base.o)
    0x20000190   COMPRESSED   0x00000004   Data   RW         2490    .data               mg_BLEpair_lib_m3.lib(fsm_base.o)
    0x20000194   COMPRESSED   0x00000008   Data   RW         2491    .data               mg_BLEpair_lib_m3.lib(fsm_base.o)
    0x2000019c   COMPRESSED   0x00000026   Data   RW         2536    .data               mg_BLEpair_lib_m3.lib(fsm_scan.o)
    0x200001c2   COMPRESSED   0x00000008   Data   RW         2663    .data               mg_BLEpair_lib_m3.lib(ll_control.o)
    0x200001ca   COMPRESSED   0x00000002   PAD
    0x200001cc   COMPRESSED   0x00000028   Data   RW         2664    .data               mg_BLEpair_lib_m3.lib(ll_control.o)
    0x200001f4   COMPRESSED   0x00000014   Data   RW         2832    .data               mg_BLEpair_lib_m3.lib(sm.o)
    0x20000208   COMPRESSED   0x0000003f   Data   RW         2946    .data               mg_BLEpair_lib_m3.lib(fsm_sconn.o)
    0x20000247   COMPRESSED   0x00000001   PAD
    0x20000248   COMPRESSED   0x00000008   Data   RW         2947    .data               mg_BLEpair_lib_m3.lib(fsm_sconn.o)
    0x20000250   COMPRESSED   0x00000028   Data   RW         3070    .data               mg_BLEpair_lib_m3.lib(fsm_mconn_sleep.o)
    0x20000278   COMPRESSED   0x0000000c   Data   RW         3156    .data               mg_BLEpair_lib_m3.lib(master_dispatch.o)
    0x20000284   COMPRESSED   0x00000004   Data   RW         3543    .data               mc_w.l(stdout.o)
    0x20000288        -       0x00000024   Zero   RW          347    .bss                bsp.o
    0x200002ac        -       0x00000190   Zero   RW          537    .bss                retarget.o
    0x2000043c        -       0x00000065   Zero   RW         1852    .bss                mg_BLEpair_lib_m3.lib(hwtest.o)
    0x200004a1   COMPRESSED   0x00000003   PAD
    0x200004a4        -       0x000001c4   Zero   RW         2253    .bss                mg_BLEpair_lib_m3.lib(data_queue.o)
    0x20000668        -       0x0000001d   Zero   RW         2325    .bss                mg_BLEpair_lib_m3.lib(slave_dispatch.o)
    0x20000685        -       0x00000027   Zero   RW         2534    .bss                mg_BLEpair_lib_m3.lib(fsm_scan.o)
    0x200006ac        -       0x0000000c   Zero   RW         2660    .bss                mg_BLEpair_lib_m3.lib(ll_control.o)
    0x200006b8        -       0x00000065   Zero   RW         2661    .bss                mg_BLEpair_lib_m3.lib(ll_control.o)
    0x2000071d        -       0x00000160   Zero   RW         2830    .bss                mg_BLEpair_lib_m3.lib(sm.o)
    0x2000087d   COMPRESSED   0x00000001   PAD
    0x2000087e        -       0x0000000c   Zero   RW         2943    .bss                mg_BLEpair_lib_m3.lib(fsm_sconn.o)
    0x2000088a        -       0x00000046   Zero   RW         2944    .bss                mg_BLEpair_lib_m3.lib(fsm_sconn.o)
    0x200008d0        -       0x00000018   Zero   RW         3068    .bss                mg_BLEpair_lib_m3.lib(fsm_mconn_sleep.o)
    0x200008e8        -       0x00000041   Zero   RW         3154    .bss                mg_BLEpair_lib_m3.lib(master_dispatch.o)
    0x20000929   COMPRESSED   0x00000007   PAD
    0x20000930        -       0x00000400   Zero   RW          733    STACK               startup_at32f407vgt7.o


==============================================================================

Image component sizes


      Code (inc. data)   RO Data    RW Data    ZI Data      Debug   Object Name

       342         90         78         15          0     289510   app.o
       536         78          0         69          0       6711   at32_board.o
       200         18          0          0          0       2622   at32f4xx_exti.o
      1776         30          0          0          0       7435   at32f4xx_gpio.o
        88         12          0          4          0       5759   at32f4xx_it.o
        52         24          0          0          0       2533   at32f4xx_iwdg.o
       392         40         16          0          0       4526   at32f4xx_rcc.o
       166          0          0          0          0       5302   at32f4xx_spi.o
       466          6          0          0          0       7973   at32f4xx_usart.o
       856         94          0         20         36      33094   bsp.o
       260        140          0          3          0     238919   main.o
       152         12          0          0          0       1930   misc.o
       404         60          0          7        400       2473   retarget.o
        36          8        388          0       1024        972   startup_at32f407vgt7.o
       356         36          0         20          0       2415   system_at32f4xx.o

    ----------------------------------------------------------------------
      6102        648        516        144       1460     612174   Object Totals
         0          0         32          0          0          0   (incl. Generated)
        20          0          2          6          0          0   (incl. Padding)

    ----------------------------------------------------------------------

      Code (inc. data)   RO Data    RW Data    ZI Data      Debug   Library Member Name

        86          0          0          0          0          0   __dczerorl2.o
         0          0          0          0          0          0   entry.o
         0          0          0          0          0          0   entry10a.o
         0          0          0          0          0          0   entry11a.o
         8          4          0          0          0          0   entry2.o
         4          0          0          0          0          0   entry5.o
         0          0          0          0          0          0   entry7b.o
         0          0          0          0          0          0   entry8b.o
         8          4          0          0          0          0   entry9a.o
        30          0          0          0          0          0   handlers.o
        36          8          0          0          0         68   init.o
        30          0          0          0          0         68   llshl.o
        32          0          0          0          0         68   llushr.o
        26          0          0          0          0         80   memcmp.o
        36          0          0          0          0         68   memcpya.o
        36          0          0          0          0        108   memseta.o
      1154         54          0          0          0        352   printf8.o
         0          0          0          4          0          0   stdout.o
        98          0          0          0          0         92   uldiv.o
      1596         52          0         12          0      23157   att.o
       276         28          0          8        452       5362   data_queue.o
       988        110         28         64          0      10843   fsm_adv_generic.o
        64         16          0         20          0       4544   fsm_base.o
       816        128         28         40         24       6452   fsm_mconn_sleep.o
       604         86         28         38         39       7080   fsm_scan.o
      1728        126         28         71         82      13520   fsm_sconn.o
      1564        116          0         94        101      14063   hwtest.o
        74          0          0          0          0        617   l2cap.o
      1612        172         12         48        113      13356   ll_control.o
      1666         36          0          5          0      19026   macrogiga_driver.o
       934         80          4         12         65      10759   master_dispatch.o
       964         74          4         61         29       5686   slave_dispatch.o
      2760        100        299         20        352      13862   sm.o

    ----------------------------------------------------------------------
     17254       1194        432        504       1268     149231   Library Totals
        24          0          1          7         11          0   (incl. Padding)

    ----------------------------------------------------------------------

      Code (inc. data)   RO Data    RW Data    ZI Data      Debug   Library Name

      1584         70          0          4          0        904   mc_w.l
     15646       1124        431        493       1257     148327   mg_BLEpair_lib_m3.lib

    ----------------------------------------------------------------------
     17254       1194        432        504       1268     149231   Library Totals

    ----------------------------------------------------------------------

==============================================================================


      Code (inc. data)   RO Data    RW Data    ZI Data      Debug   

     23356       1842        948        648       2728     744321   Grand Totals
     23356       1842        948        188       2728     744321   ELF Image Totals (compressed)
     23356       1842        948        188          0          0   ROM Totals

==============================================================================

    Total RO  Size (Code + RO Data)                24304 (  23.73kB)
    Total RW  Size (RW Data + ZI Data)              3376 (   3.30kB)
    Total ROM Size (Code + RO Data + RW Data)      24492 (  23.92kB)

==============================================================================

